(dp0
S'hats'
p1
(lp2
S'hat'
p3
asS'yellow'
p4
(lp5
S'chicken'
p6
aS'scandalmongering'
p7
aS'jaundiced'
p8
asS'four'
p9
(lp10
S'four-spot'
p11
asS'woods'
p12
(lp13
S'forest'
p14
aS'wood'
p15
aS'woodwind'
p16
asS'railing'
p17
(lp18
S'rail'
p19
aS'train'
p20
aS'vilify'
p21
aS'fulminate'
p22
asS'climb'
p23
(lp24
S'ascent'
p25
aS'wax'
p26
aS'rise'
p27
asS'marching'
p28
(lp29
S'march'
p30
aS'demonstrate'
p31
aS'parade'
p32
aS'border'
p33
asS'muzzle'
p34
(lp35
S'gun_muzzle'
p36
aS'gag'
p37
asS'Tiles'
p38
(lp39
S'tile'
p40
asS'feeding'
p41
(lp42
S'eating'
p43
aS'feed'
p44
aS'run'
p45
aS'prey'
p46
aS'fertilize'
p47
asS'patches'
p48
(lp49
S'spot'
p50
aS'plot'
p51
aS'patch'
p52
aS'while'
p53
aS'temporary_hookup'
p54
aS'mend'
p55
aS'eyepatch'
p56
aS'bandage'
p57
aS'piece'
p58
asS'granting'
p59
(lp60
S'allow'
p61
aS'award'
p62
aS'concede'
p63
aS'accord'
p64
aS'grant'
p65
asS'fingernails'
p66
(lp67
S'fingernail'
p68
asS'bike'
p69
(lp70
S'motorcycle'
p71
aS'bicycle'
p72
asS'under'
p73
(lp74
S'nether'
p75
asS'shaving'
p76
(lp77
S'shave'
p78
aS'paring'
p79
aS'grazing'
p80
aS'plane'
p81
asS'fists'
p82
(lp83
S'fist'
p84
asS'blanket'
p85
(lp86
S'across-the-board'
p87
asS'courageous'
p88
(lp89
S'brave'
p90
asS'vast'
p91
(lp92
S'huge'
p93
asS'school'
p94
(lp95
S'educate'
p96
asS'capsicum'
p97
(lp98
S'genus_capsicum'
p99
asS'clothes'
p100
(lp101
S'apparel'
p102
aS'dress'
p103
aS'invest'
p104
aS'clothe'
p105
asS'snowsuits'
p106
(lp107
S'snowsuit'
p108
asS'toddling'
p109
(lp110
S'toddle'
p111
asS'hanging'
p112
(lp113
S'suspension'
p114
aS'hang'
p115
aS'attend'
p116
aS'cling'
p117
asS'nail'
p118
(lp119
S'collar'
p120
aS'smash'
p121
aS'nail_down'
p122
aS'breeze_through'
p123
aS'pinpoint'
p124
aS'complete'
p125
asS'surrounding'
p126
(lp127
S'surround'
p128
aS'smother'
p129
aS'besiege'
p130
aS'wall'
p131
aS'encompassing'
p132
asS'rusty'
p133
(lp134
S'rust'
p135
aS'out_of_practice'
p136
aS'hoary'
p137
asS'panda'
p138
(lp139
S'giant_panda'
p140
aS'lesser_panda'
p141
asS'shining'
p142
(lp143
S'reflect'
p144
aS'shine'
p145
aS'glitter'
p146
aS'glow'
p147
aS'fall'
p148
aS'polish'
p149
aS'clamber'
p150
aS'bright'
p151
aS'glistening'
p152
asS'blue'
p153
(lp154
S'blue_sky'
p155
aS'bluing'
p156
aS'amobarbital_sodium'
p157
aS'gloomy'
p158
aS'blasphemous'
p159
aS'aristocratic'
p160
asS'tirelessly'
p161
(lp162
S'indefatigably'
p163
asS'cooking'
p164
(lp165
S'cook'
p166
aS'fudge'
p167
asS'fingers'
p168
(lp169
S'finger'
p170
aS'feel'
p171
asS'children'
p172
(lp173
S'child'
p174
asS'lights'
p175
(lp176
S'light'
p177
aS'luminosity'
p178
aS'sparkle'
p179
aS'inner_light'
p180
aS'lighter'
p181
aS'light_up'
p182
aS'alight'
p183
aS'ignite'
p184
aS'fall'
p185
aS'unhorse'
p186
asS'new'
p187
(lp188
S'fresh'
p189
aS'raw'
p190
aS'newfangled'
p191
aS'modern'
p192
aS'newly'
p193
asS'net'
p194
(lp195
S'internet'
p196
aS'net_income'
p197
aS'web'
p198
aS'final'
p199
asS'reviving'
p200
(lp201
S'resuscitate'
p202
aS'animate'
p203
aS'revive'
p204
aS'come_to'
p205
aS'renewing'
p206
asS'helmets'
p207
(lp208
S'helmet'
p209
asS'kicked'
p210
(lp211
S'kick'
p212
aS'kick_back'
p213
aS'complain'
p214
asS'men'
p215
(lp216
S'work_force'
p217
aS'man'
p218
aS'serviceman'
p219
aS'homo'
p220
aS'valet'
p221
aS'world'
p222
asS'wrapping'
p223
(lp224
S'swathe'
p225
aS'wrap'
p226
aS'wind'
p227
aS'envelop'
p228
asS'ramps'
p229
(lp230
S'ramp'
p231
asS'herd'
p232
(lp233
S'ruck'
p234
asS'protection'
p235
(lp236
S'protective_covering'
p237
aS'security'
p238
aS'auspices'
p239
asS'path'
p240
(lp241
S'way'
p242
asS'kids'
p243
(lp244
S'child'
p245
aS'kid'
p246
aS'kyd'
p247
aS'pull_the_leg_of'
p248
asS'biking'
p249
(lp250
S'bicycle'
p251
asS'study'
p252
(lp253
S'survey'
p254
aS'report'
p255
aS'discipline'
p256
aS'sketch'
p257
aS'cogitation'
p258
aS'analyze'
p259
aS'learn'
p260
asS'climbed'
p261
(lp262
S'climb'
p263
aS'wax'
p264
aS'rise'
p265
asS'Pieces'
p266
(lp267
S'piece'
p268
aS'part'
p269
aS'musical_composition'
p270
aS'firearm'
p271
aS"objet_d'art"
p272
aS'while'
p273
aS'slice'
p274
aS'man'
p275
aS'patch'
p276
aS'assemble'
p277
aS'nibble'
p278
asS'Onions'
p279
(lp280
S'onion'
p281
asS'climber'
p282
(lp283
S'social_climber'
p284
aS'mounter'
p285
aS'crampon'
p286
asS'eyebrows'
p287
(lp288
S'eyebrow'
p289
asS'golden'
p290
(lp291
S'aureate'
p292
aS'gold'
p293
aS'fortunate'
p294
asS'slices'
p295
(lp296
S'slice'
p297
aS'piece'
p298
aS'cut'
p299
aS'slit'
p300
asS'straw'
p301
(lp302
S'chaff'
p303
aS'pale_yellow'
p304
aS'strew'
p305
asS'sliced'
p306
(lp307
S'slit'
p308
aS'slice'
p309
aS'chopped'
p310
asS'punching'
p311
(lp312
S'punch'
p313
asS'swings'
p314
(lp315
S'swing'
p316
aS'lilt'
p317
aS'golf_stroke'
p318
aS'baseball_swing'
p319
aS'dangle'
p320
asS'sweater'
p321
(lp322
S'perspirer'
p323
asS'watering'
p324
(lp325
S'lacrimation'
p326
aS'water'
p327
asS'barks'
p328
(lp329
S'bark'
p330
asS'arms'
p331
(lp332
S'weaponry'
p333
aS'coat_of_arms'
p334
aS'arm'
p335
aS'weapon'
p336
aS'branch'
p337
aS'sleeve'
p338
asS'program'
p339
(lp340
S'plan'
p341
aS'broadcast'
p342
aS'platform'
p343
aS'course_of_study'
p344
asS'separated'
p345
(lp346
S'separate'
p347
aS'distinguish'
p348
aS'divide'
p349
aS'classify'
p350
aS'break'
p351
aS'discriminate'
p352
aS'branch'
p353
aS'detached'
p354
aS'disjointed'
p355
asS'it'
p356
(lp357
S'information_technology'
p358
asS'phone'
p359
(lp360
S'telephone'
p361
aS'earphone'
p362
aS'call'
p363
asS'warm'
p364
(lp365
S'affectionate'
p366
aS'strong'
p367
aS'quick'
p368
aS'ardent'
p369
aS'warmly'
p370
asS'adult'
p371
(lp372
S'pornographic'
p373
asS'tying'
p374
(lp375
S'tie'
p376
aS'connect'
p377
aS'bind'
p378
aS'marry'
p379
asS'hole'
p380
(lp381
S'fix'
p382
aS'trap'
p383
asS'word'
p384
(lp385
S'news'
p386
aS'discussion'
p387
aS'parole'
p388
aS'son'
p389
aS'password'
p390
aS'bible'
p391
aS'give_voice'
p392
asS'room'
p393
(lp394
S'board'
p395
asS'player'
p396
(lp397
S'musician'
p398
aS'actor'
p399
asS'blade'
p400
(lp401
S'sword'
p402
asS'refusing'
p403
(lp404
S'refuse'
p405
aS'defy'
p406
aS'deny'
p407
aS'resist'
p408
aS'reject'
p409
asS'worn'
p410
(lp411
S'wear'
p412
aS'break'
p413
aS'tire'
p414
aS'careworn'
p415
asS'blooming'
p416
(lp417
S'bloom'
p418
aS'bally'
p419
asS'clinging'
p420
(lp421
S'cling'
p422
asS'squirting'
p423
(lp424
S'squirt'
p425
aS'jetting'
p426
asS'end'
p427
(lp428
S'goal'
p429
aS'conclusion'
p430
asS'scolding'
p431
(lp432
S'chiding'
p433
aS'call_on_the_carpet'
p434
aS'grouch'
p435
asS'provide'
p436
(lp437
S'supply'
p438
aS'put_up'
p439
aS'leave'
p440
asS'song'
p441
(lp442
S'birdcall'
p443
aS'sung'
p444
asS'machine'
p445
(lp446
S'car'
p447
asS'far'
p448
(lp449
S'army_for_the_liberation_of_rwanda'
p450
asS'hot'
p451
(lp452
S'blistering'
p453
asS'interview'
p454
(lp455
S'consultation'
p456
asS'A'
p457
(lp458
S'angstrom'
p459
aS'vitamin_a'
p460
aS'deoxyadenosine_monophosphate'
p461
aS'adenine'
p462
aS'ampere'
p463
aS'a'
p464
asS'mouths'
p465
(lp466
S'mouth'
p467
aS'mouthpiece'
p468
aS'sass'
p469
aS'talk'
p470
asS'after'
p471
(lp472
S'subsequently'
p473
asS'jumping'
p474
(lp475
S'jump'
p476
aS'startle'
p477
aS'leap_out'
p478
aS'rise'
p479
aS'derail'
p480
aS'chute'
p481
aS'jumpstart'
p482
aS'leap'
p483
aS'alternate'
p484
asS'lap'
p485
(lp486
S'lick'
p487
aS'lave'
p488
asS'spout'
p489
(lp490
S'spurt'
p491
aS'rant'
p492
asS'green'
p493
(lp494
S'park'
p495
aS'greens'
p496
aS'k'
p497
aS'fleeceable'
p498
asS'scarf'
p499
(lp500
S'scarf_joint'
p501
asS'athletes'
p502
(lp503
S'athlete'
p504
asS'wind'
p505
(lp506
S'tip'
p507
aS'wind_instrument'
p508
aS'fart'
p509
aS'weave'
p510
aS'scent'
p511
aS'wreathe'
p512
aS'hoist'
p513
asS'hedgehog'
p514
(lp515
S'porcupine'
p516
asS'Blue'
p517
(lp518
S'blue'
p519
aS'blue_sky'
p520
aS'bluing'
p521
aS'amobarbital_sodium'
p522
aS'gloomy'
p523
aS'blasphemous'
p524
aS'aristocratic'
p525
asS'over'
p526
(lp527
S'complete'
p528
aS'all_over'
p529
asS'murals'
p530
(lp531
S'mural'
p532
asS'before'
p533
(lp534
S'earlier'
p535
aS'ahead'
p536
asS'scoring'
p537
(lp538
S'marking'
p539
aS'score'
p540
aS'seduce'
p541
aS'grade'
p542
asS'screaming'
p543
(lp544
S'scream'
p545
aS'screech'
p546
aS'shout'
p547
aS'yell'
p548
aS'hilarious'
p549
asS'writing'
p550
(lp551
S'write'
p552
aS'publish'
p553
aS'compose'
p554
aS'spell'
p555
asS'sprays'
p556
(lp557
S'spray'
p558
aS'atomizer'
p559
asS'Kids'
p560
(lp561
S'child'
p562
aS'kid'
p563
aS'kyd'
p564
aS'pull_the_leg_of'
p565
asS'sneezing'
p566
(lp567
S'sneeze'
p568
asS'break'
p569
(lp570
S'interruption'
p571
aS'fault'
p572
aS'rupture'
p573
aS'respite'
p574
aS'breakage'
p575
aS'pause'
p576
aS'fracture'
p577
aS'open_frame'
p578
aS'interrupt'
p579
aS'transgress'
p580
aS'break_in'
p581
aS'violate'
p582
aS'better'
p583
aS'unwrap'
p584
aS'fail'
p585
aS'dampen'
p586
aS'separate'
p587
aS'demote'
p588
aS'bankrupt'
p589
aS'collapse'
p590
aS'break_dance'
p591
aS'crack'
p592
asS'band'
p593
(lp594
S'set'
p595
aS'dance_band'
p596
aS'isthmus'
p597
aS'ring'
p598
asS'silver'
p599
(lp600
S'ash_grey'
p601
aS'flatware'
p602
aS'silver_medal'
p603
aS'argent'
p604
aS'eloquent'
p605
asS'bank'
p606
(lp607
S'depository_financial_institution'
p608
aS'savings_bank'
p609
aS'deposit'
p610
aS'trust'
p611
asS'bread'
p612
(lp613
S'boodle'
p614
asS'meat'
p615
(lp616
S'kernel'
p617
asS'whacking'
p618
(lp619
S'beating'
p620
aS'whack'
p621
asS'potatoes'
p622
(lp623
S'potato'
p624
asS'leading'
p625
(lp626
S'lead'
p627
aS'leadership'
p628
aS'leave'
p629
aS'run'
p630
aS'head'
p631
aS'contribute'
p632
aS'conduct'
p633
aS'go'
p634
aS'precede'
p635
aS'moderate'
p636
aS'ahead'
p637
asS'rocks'
p638
(lp639
S'rock'
p640
aS'rock_candy'
p641
aS"rock_'n'_roll"
p642
asS'Four'
p643
(lp644
S'four'
p645
aS'four-spot'
p646
asS'filling'
p647
(lp648
S'woof'
p649
aS'fill'
p650
aS'occupy'
p651
aS'meet'
p652
aS'fill_up'
p653
aS'satiate'
p654
asS'side'
p655
(lp656
S'slope'
p657
aS'english'
p658
asS'lifted'
p659
(lp660
S'raise'
p661
aS'lift'
p662
aS'rise'
p663
aS'revoke'
p664
aS'pilfer'
p665
aS'hoist'
p666
aS'plagiarize'
p667
aS'rustle'
p668
aS'airlift'
p669
aS'face-lift'
p670
aS'upraised'
p671
asS'snakes'
p672
(lp673
S'snake'
p674
aS'hydra'
p675
asS'celebrating'
p676
(lp677
S'observe'
p678
aS'celebrate'
p679
aS'lionize'
p680
asS'goo'
p681
(lp682
S'sludge'
p683
asS'driving'
p684
(lp685
S'drive'
p686
aS'force'
p687
aS'repel'
p688
aS'tug'
p689
asS'cameras'
p690
(lp691
S'camera'
p692
aS'television_camera'
p693
asS'content'
p694
(lp695
S'message'
p696
aS'capacity'
p697
aS'contentedness'
p698
aS'subject'
p699
aS'contented'
p700
asS'laid'
p701
(lp702
S'put'
p703
aS'lay'
p704
asS'Cereal'
p705
(lp706
S'cereal'
p707
aS'grain'
p708
asS'sliding'
p709
(lp710
S'skid'
p711
aS'slither'
p712
aS'slide'
p713
asS'splashed'
p714
(lp715
S'sprinkle'
p716
aS'squelch'
p717
aS'spatter'
p718
aS'splash'
p719
aS'dabbled'
p720
asS'turning'
p721
(lp722
S'turn'
p723
aS'change_state'
p724
aS'become'
p725
aS'change_by_reversal'
p726
aS'plow'
p727
aS'twist'
p728
aS'flex'
p729
aS'call_on'
p730
aS'sour'
p731
asS'little'
p732
(lp733
S'small'
p734
aS'fiddling'
p735
aS'short'
p736
asS'dashing'
p737
(lp738
S'dart'
p739
aS'smash'
p740
aS'crash'
p741
aS'dash'
p742
aS'daunt'
p743
aS'dapper'
p744
asS'formation'
p745
(lp746
S'constitution'
p747
aS'geological_formation'
p748
asS'splashes'
p749
(lp750
S'splash'
p751
aS'stir'
p752
aS'dab'
p753
aS'spatter'
p754
aS'sprinkle'
p755
aS'squelch'
p756
asS'outfits'
p757
(lp758
S'outfit'
p759
aS'kit'
p760
aS'equip'
p761
asS'licked'
p762
(lp763
S'cream'
p764
aS'lick'
p765
aS'solve'
p766
aS'lap'
p767
asS'soda'
p768
(lp769
S'sodium_carbonate'
p770
aS'pop'
p771
asS'moving'
p772
(lp773
S'travel'
p774
aS'move'
p775
aS'go'
p776
aS'be_active'
p777
aS'act'
p778
aS'affect'
p779
aS'motivate'
p780
asS'chopped'
p781
(lp782
S'chop'
p783
asS'spinning'
p784
(lp785
S'spin'
p786
aS'whirl'
p787
asS'scissors'
p788
(lp789
S'scissor'
p790
asS'thick'
p791
(lp792
S'midst'
p793
aS'slurred'
p794
aS'compact'
p795
aS'dense'
p796
aS'chummy'
p797
aS'blockheaded'
p798
aS'thickly'
p799
asS'top'
p800
(lp801
S'peak'
p802
aS'acme'
p803
aS'circus_tent'
p804
aS'exceed'
p805
aS'clear'
p806
aS'lead'
p807
aS'crown'
p808
asS'girls'
p809
(lp810
S'girl'
p811
aS'female_child'
p812
aS'daughter'
p813
aS'girlfriend'
p814
asS'legs'
p815
(lp816
S'leg'
p817
aS'branch'
p818
aS'peg'
p819
aS'stage'
p820
asS'dogs'
p821
(lp822
S'dog'
p823
aS'frump'
p824
aS'cad'
p825
aS'frank'
p826
aS'pawl'
p827
aS'andiron'
p828
aS'chase'
p829
asS'bouncing'
p830
(lp831
S'bounce'
p832
asS'gym'
p833
(lp834
S'gymnasium'
p835
asS'cereal'
p836
(lp837
S'grain'
p838
asS'brushed'
p839
(lp840
S'brush'
p841
asS'target'
p842
(lp843
S'prey'
p844
aS'aim'
p845
asS'tree'
p846
(lp847
S'corner'
p848
asS'seated'
p849
(lp850
S'seat'
p851
aS'induct'
p852
asS'friend'
p853
(lp854
S'ally'
p855
aS'acquaintance'
p856
aS'supporter'
p857
asS'tackled'
p858
(lp859
S'undertake'
p860
aS'harness'
p861
aS'tackle'
p862
asS'beard'
p863
(lp864
S'byssus'
p865
asS'extracting'
p866
(lp867
S'extract'
p868
aS'educe'
p869
aS'distill'
p870
aS'press_out'
p871
aS'excerpt'
p872
asS'fashion'
p873
(lp874
S'manner'
p875
asS'runner'
p876
(lp877
S'smuggler'
p878
aS'base_runner'
p879
aS'stolon'
p880
aS'ball_carrier'
p881
asS'ginger'
p882
(lp883
S'pep'
p884
asS'talking'
p885
(lp886
S'talk'
p887
aS'speak'
p888
aS'spill'
p889
aS'spill_the_beans'
p890
aS'lecture'
p891
asS'Egyptian'
p892
(lp893
S'egyptian'
p894
asS'snow'
p895
(lp896
S'coke'
p897
aS'bamboozle'
p898
asS'racers'
p899
(lp900
S'racer'
p901
asS'fitting'
p902
(lp903
S'adjustment'
p904
aS'appointment'
p905
aS'suit'
p906
aS'fit'
p907
aS'meet'
p908
aS'match'
p909
aS'equip'
p910
asS'amusing'
p911
(lp912
S'amuse'
p913
asS'rides'
p914
(lp915
S'drive'
p916
aS'ride'
p917
aS'tease'
p918
aS'depend_on'
p919
aS'rid'
p920
asS'rider'
p921
(lp922
S'passenger'
p923
asS'circles'
p924
(lp925
S'circle'
p926
aS'set'
p927
aS'lap'
p928
aS'traffic_circle'
p929
aS'r-2'
p930
aS'encircle'
p931
asS'shallow'
p932
(lp933
S'shoal'
p934
asS'object'
p935
(lp936
S'aim'
p937
asS'mouth'
p938
(lp939
S'mouthpiece'
p940
aS'sass'
p941
aS'talk'
p942
asS'exercises'
p943
(lp944
S'exercise'
p945
aS'use'
p946
aS'exert'
p947
aS'practice'
p948
aS'drill'
p949
asS'coin'
p950
(lp951
S'mint'
p952
asS'metal'
p953
(lp954
S'metallic_element'
p955
aS'alloy'
p956
aS'metallic'
p957
asS'dog'
p958
(lp959
S'frump'
p960
aS'cad'
p961
aS'frank'
p962
aS'pawl'
p963
aS'andiron'
p964
aS'chase'
p965
asS'musical'
p966
(lp967
S'melodious'
p968
asS'swamp'
p969
(lp970
S'deluge'
p971
asS'saying'
p972
(lp973
S'state'
p974
aS'allege'
p975
aS'suppose'
p976
aS'read'
p977
aS'order'
p978
aS'pronounce'
p979
aS'say'
p980
asS'hunger'
p981
(lp982
S'crave'
p983
aS'starve'
p984
asS'radio'
p985
(lp986
S'radio_receiver'
p987
asS'earth'
p988
(lp989
S'land'
p990
aS'worldly_concern'
p991
aS'ground'
p992
asS'European'
p993
(lp994
S'european'
p995
asS'busy'
p996
(lp997
S'interfering'
p998
asS'lazing'
p999
(lp1000
S'idle'
p1001
asS'folded'
p1002
(lp1003
S'fold'
p1004
aS'close_up'
p1005
aS'pen_up'
p1006
asS'sugar'
p1007
(lp1008
S'carbohydrate'
p1009
aS'boodle'
p1010
asS'pursuing'
p1011
(lp1012
S'prosecute'
p1013
aS'pursue'
p1014
aS'quest_for'
p1015
asS'scrubbing'
p1016
(lp1017
S'scrub'
p1018
aS'cancel'
p1019
asS'wearing'
p1020
(lp1021
S'erosion'
p1022
aS'wear'
p1023
aS'break'
p1024
aS'tire'
p1025
aS'exhausting'
p1026
asS'plate'
p1027
(lp1028
S'home_plate'
p1029
aS'denture'
p1030
asS'tiles'
p1031
(lp1032
S'tile'
p1033
asS'mixture'
p1034
(lp1035
S'concoction'
p1036
aS'assortment'
p1037
aS'mix'
p1038
asS'sunglasses'
p1039
(lp1040
S'sunglass'
p1041
asS'colorful'
p1042
(lp1043
S'colored'
p1044
asS'watch'
p1045
(lp1046
S'lookout'
p1047
aS'vigil'
p1048
aS'determine'
p1049
asS'pocket'
p1050
(lp1051
S'pouch'
p1052
aS'scoop'
p1053
aS'air_pocket'
p1054
asS'wedding'
p1055
(lp1056
S'marriage'
p1057
aS'marry'
p1058
asS'frying'
p1059
(lp1060
S'fry'
p1061
aS'electrocute'
p1062
asS'beads'
p1063
(lp1064
S'bead'
p1065
aS'drop'
p1066
aS'beading'
p1067
asS'spilling'
p1068
(lp1069
S'spill'
p1070
asS'covering'
p1071
(lp1072
S'cover'
p1073
aS'application'
p1074
aS'embrace'
p1075
aS'traverse'
p1076
aS'report'
p1077
aS'shroud'
p1078
aS'breed'
p1079
aS'overlay'
p1080
aS'brood'
p1081
asS'rowing'
p1082
(lp1083
S'row'
p1084
asS'dipping'
p1085
(lp1086
S'dunk'
p1087
aS'dip'
p1088
aS'dim'
p1089
asS'licking'
p1090
(lp1091
S'defeat'
p1092
aS'beating'
p1093
aS'cream'
p1094
aS'lick'
p1095
aS'solve'
p1096
aS'lap'
p1097
asS'bay'
p1098
(lp1099
S'true_laurel'
p1100
aS'alcove'
p1101
asS'bag'
p1102
(lp1103
S'base'
p1104
aS'udder'
p1105
aS'cup_of_tea'
p1106
aS'bulge'
p1107
aS'pocket'
p1108
asS'gears'
p1109
(lp1110
S'gear'
p1111
aS'gearing'
p1112
asS'ears'
p1113
(lp1114
S'ear'
p1115
aS'auricle'
p1116
asS'fair'
p1117
(lp1118
S'carnival'
p1119
aS'bazaar'
p1120
aS'bonny'
p1121
aS'average'
p1122
aS'clean'
p1123
aS'honest'
p1124
aS'fairly'
p1125
asS'noodles'
p1126
(lp1127
S'noodle'
p1128
aS'attic'
p1129
asS'hammer'
p1130
(lp1131
S'malleus'
p1132
aS'mallet'
p1133
aS'forge'
p1134
asS'Dogs'
p1135
(lp1136
S'dog'
p1137
aS'frump'
p1138
aS'cad'
p1139
aS'frank'
p1140
aS'pawl'
p1141
aS'andiron'
p1142
aS'chase'
p1143
asS'subject'
p1144
(lp1145
S'discipline'
p1146
aS'topic'
p1147
aS'national'
p1148
aS'subjugate'
p1149
aS'submit'
p1150
aS'capable'
p1151
asS'Somebody'
p1152
(lp1153
S'person'
p1154
asS'glass'
p1155
(lp1156
S'field_glass'
p1157
aS'methamphetamine'
p1158
aS'looking_glass'
p1159
aS'glaze'
p1160
asS'lots'
p1161
(lp1162
S'tons'
p1163
aS'batch'
p1164
aS'lot'
p1165
aS'set'
p1166
aS'fortune'
p1167
aS'draw'
p1168
aS'bunch'
p1169
aS'distribute'
p1170
aS'a_lot'
p1171
asS'tattooed'
p1172
(lp1173
S'tattoo'
p1174
asS'away'
p1175
(lp1176
S'aside'
p1177
aS'off'
p1178
asS'sail'
p1179
(lp1180
S'cruise'
p1181
aS'sweep'
p1182
aS'voyage'
p1183
asS'mud'
p1184
(lp1185
S'mire'
p1186
asS'mug'
p1187
(lp1188
S'chump'
p1189
aS'countenance'
p1190
asS'finger'
p1191
(lp1192
S'feel'
p1193
asS'drawn'
p1194
(lp1195
S'pull'
p1196
aS'reap'
p1197
aS'trace'
p1198
aS'draw'
p1199
aS'describe'
p1200
aS'puff'
p1201
aS'withdraw'
p1202
aS'absorb'
p1203
aS'attract'
p1204
aS'string'
p1205
aS'pull_back'
p1206
aS'guide'
p1207
aS'tie'
p1208
aS'disembowel'
p1209
aS'careworn'
p1210
asS'herding'
p1211
(lp1212
S'herd'
p1213
asS'wears'
p1214
(lp1215
S'wear'
p1216
aS'clothing'
p1217
aS'break'
p1218
aS'tire'
p1219
asS'phoning'
p1220
(lp1221
S'call'
p1222
asS'cut'
p1223
(lp1224
S'stinger'
p1225
aS'deletion'
p1226
aS'snub'
p1227
aS'baseball_swing'
p1228
aS'reduce'
p1229
aS'swerve'
p1230
aS'write_out'
p1231
aS'edit'
p1232
aS'hack'
p1233
aS'switch_off'
p1234
aS'ignore'
p1235
aS'abridge'
p1236
aS'dilute'
p1237
aS'geld'
p1238
aS'trimmed'
p1239
aS'mown'
p1240
asS'picking'
p1241
(lp1242
S'pick'
p1243
aS'blame'
p1244
aS'clean'
p1245
aS'foot'
p1246
aS'pluck'
p1247
aS'peck'
p1248
aS'nibble'
p1249
asS'faced'
p1250
(lp1251
S'confront'
p1252
aS'front'
p1253
aS'face'
p1254
asS'cop'
p1255
(lp1256
S'bull'
p1257
aS'hook'
p1258
aS'collar'
p1259
asS'cow'
p1260
(lp1261
S'overawe'
p1262
asS'country'
p1263
(lp1264
S'state'
p1265
aS'nation'
p1266
aS'area'
p1267
asS'dough'
p1268
(lp1269
S'boodle'
p1270
asS'participating'
p1271
(lp1272
S'participate'
p1273
aS'enter'
p1274
aS'active'
p1275
asS'players'
p1276
(lp1277
S'player'
p1278
aS'musician'
p1279
aS'actor'
p1280
asS'cob'
p1281
(lp1282
S'hazelnut'
p1283
aS'black-backed_gull'
p1284
asS'games'
p1285
(lp1286
S'game'
p1287
aS'plot'
p1288
aS'bet_on'
p1289
asS'peddling'
p1290
(lp1291
S'vending'
p1292
aS'peddle'
p1293
asS'faces'
p1294
(lp1295
S'face'
p1296
aS'expression'
p1297
aS'side'
p1298
aS'grimace'
p1299
aS'font'
p1300
aS'boldness'
p1301
aS'confront'
p1302
aS'front'
p1303
asS'tough'
p1304
(lp1305
S'street_fighter'
p1306
aS'hood'
p1307
aS'bully'
p1308
aS'rugged'
p1309
aS'sturdy'
p1310
aS'ruffianly'
p1311
aS'bad'
p1312
aS'hard'
p1313
aS'baffling'
p1314
asS'sheepdog'
p1315
(lp1316
S'shepherd_dog'
p1317
asS'blonds'
p1318
(lp1319
S'blond'
p1320
asS'blonde'
p1321
(lp1322
S'blond'
p1323
asS'grazing'
p1324
(lp1325
S'graze'
p1326
aS'crop'
p1327
aS'browse'
p1328
asS'panel'
p1329
(lp1330
S'jury'
p1331
aS'gore'
p1332
aS'dialog_box'
p1333
aS'control_panel'
p1334
aS'empanel'
p1335
asS'headlights'
p1336
(lp1337
S'headlight'
p1338
asS'immobile'
p1339
(lp1340
S'fast'
p1341
asS'bikinis'
p1342
(lp1343
S'bikini'
p1344
asS'ropes'
p1345
(lp1346
S'rope'
p1347
aS'r-2'
p1348
aS'lasso'
p1349
asS'three'
p1350
(lp1351
S'trey'
p1352
asS'tiny'
p1353
(lp1354
S'bantam'
p1355
asS'quickly'
p1356
(lp1357
S'promptly'
p1358
aS'cursorily'
p1359
asS'lovely'
p1360
(lp1361
S'cover_girl'
p1362
aS'adorable'
p1363
asS'roped'
p1364
(lp1365
S'lasso'
p1366
aS'rope'
p1367
asS'board'
p1368
(lp1369
S'display_panel'
p1370
aS'dining_table'
p1371
aS'control_panel'
p1372
aS'circuit_board'
p1373
asS'relaxing'
p1374
(lp1375
S'relax'
p1376
aS'loosen'
p1377
aS'slack'
p1378
aS'restful'
p1379
asS'eastern'
p1380
(lp1381
S'easterly'
p1382
asS'droplets'
p1383
(lp1384
S'droplet'
p1385
asS'armbands'
p1386
(lp1387
S'armband'
p1388
asS'substance'
p1389
(lp1390
S'kernel'
p1391
aS'meaning'
p1392
aS'means'
p1393
aS'message'
p1394
asS'tapping'
p1395
(lp1396
S'tap'
p1397
aS'exploit'
p1398
aS'wiretap'
p1399
aS'tapdance'
p1400
aS'solicit'
p1401
asS'catch'
p1402
(lp1403
S'apprehension'
p1404
aS'get'
p1405
aS'hitch'
p1406
aS'capture'
p1407
aS'overtake'
p1408
aS'watch'
p1409
aS'trip_up'
p1410
asS'tank'
p1411
(lp1412
S'tank_car'
p1413
aS'cooler'
p1414
asS'air'
p1415
(lp1416
S'breeze'
p1417
aS'atmosphere'
p1418
aS'tune'
p1419
aS'air_travel'
p1420
aS'air_out'
p1421
aS'publicize'
p1422
aS'vent'
p1423
asS'aim'
p1424
(lp1425
S'purpose'
p1426
aS'bearing'
p1427
aS'drive'
p1428
aS'calculate'
p1429
aS'target'
p1430
aS'draw_a_bead_on'
p1431
asS'near'
p1432
(lp1433
S'approach'
p1434
aS'cheeseparing'
p1435
aS'dear'
p1436
aS'approximate'
p1437
aS'about'
p1438
asS'stopping'
p1439
(lp1440
S'fillet'
p1441
aS'stop'
p1442
aS'discontinue'
p1443
aS'break'
p1444
aS'check'
p1445
aS'intercept'
p1446
aS'end'
p1447
aS'barricade'
p1448
aS'hold_on'
p1449
asS'cracked'
p1450
(lp1451
S'crack'
p1452
aS'snap'
p1453
aS'break_through'
p1454
aS'crack_up'
p1455
aS'chapped'
p1456
aS'alligatored'
p1457
aS'balmy'
p1458
asS'Swimmers'
p1459
(lp1460
S'swimmer'
p1461
asS'leaves'
p1462
(lp1463
S'leaf'
p1464
aS'leave'
p1465
aS'farewell'
p1466
aS'exit'
p1467
aS'entrust'
p1468
aS'bequeath'
p1469
aS'impart'
p1470
aS'forget'
p1471
asS'played'
p1472
(lp1473
S'play'
p1474
aS'act'
p1475
aS'toy'
p1476
aS'dally'
p1477
aS'bring'
p1478
aS'bet'
p1479
aS'meet'
p1480
asS'is'
p1481
(lp1482
S'be'
p1483
aS'exist'
p1484
aS'equal'
p1485
aS'constitute'
p1486
aS'embody'
p1487
aS'cost'
p1488
asS'accessories'
p1489
(lp1490
S'accessory'
p1491
asS'skipping'
p1492
(lp1493
S'jump'
p1494
aS'cut'
p1495
aS'hop'
p1496
aS'decamp'
p1497
aS'skip'
p1498
aS'skim'
p1499
asS'buttering'
p1500
(lp1501
S'butter'
p1502
asS'piercings'
p1503
(lp1504
S'pierce'
p1505
asS'in'
p1506
(lp1507
S'inch'
p1508
aS'indium'
p1509
aS'indiana'
p1510
asS'ignoring'
p1511
(lp1512
S'ignore'
p1513
aS'dismiss'
p1514
aS'neglect'
p1515
asS'mouse'
p1516
(lp1517
S'shiner'
p1518
aS'sneak'
p1519
asS'bottles'
p1520
(lp1521
S'bottle'
p1522
asS'perform'
p1523
(lp1524
S'do'
p1525
asS'things'
p1526
(lp1527
S'thing'
p1528
aS'matter'
p1529
asS'belly'
p1530
(lp1531
S'abdomen'
p1532
asS'several'
p1533
(lp1534
S'respective'
p1535
asS'bells'
p1536
(lp1537
S'bell'
p1538
aS'doorbell'
p1539
aS'chime'
p1540
asS'wheel'
p1541
(lp1542
S'steering_wheel'
p1543
aS'roulette_wheel'
p1544
aS'rack'
p1545
aS'bicycle'
p1546
asS'bearded'
p1547
(lp1548
S'beard'
p1549
asS'boiled'
p1550
(lp1551
S'boil'
p1552
aS'churn'
p1553
aS'seethe'
p1554
asS'rail'
p1555
(lp1556
S'railing'
p1557
aS'track'
p1558
aS'train'
p1559
aS'vilify'
p1560
aS'fulminate'
p1561
asS'hand'
p1562
(lp1563
S'hired_hand'
p1564
aS'handwriting'
p1565
aS'bridge_player'
p1566
aS'pass'
p1567
asS'photographers'
p1568
(lp1569
S'photographer'
p1570
asS'greedily'
p1571
(lp1572
S'avariciously'
p1573
asS'kid'
p1574
(lp1575
S'child'
p1576
aS'kyd'
p1577
aS'pull_the_leg_of'
p1578
asS'hopping'
p1579
(lp1580
S'hop'
p1581
asS'failing'
p1582
(lp1583
S'fail'
p1584
asS'game'
p1585
(lp1586
S'plot'
p1587
aS'bet_on'
p1588
aS'crippled'
p1589
asS'mother'
p1590
(lp1591
S'beget'
p1592
asS'smoked'
p1593
(lp1594
S'smoke'
p1595
aS'fume'
p1596
asS'massaging'
p1597
(lp1598
S'massage'
p1599
asS'left'
p1600
(lp1601
S'left_field'
p1602
aS'leave'
p1603
aS'exit'
p1604
aS'entrust'
p1605
aS'bequeath'
p1606
aS'impart'
p1607
aS'forget'
p1608
aS'leftover'
p1609
asS'trainer'
p1610
(lp1611
S'flight_simulator'
p1612
asS'stenography'
p1613
(lp1614
S'shorthand'
p1615
asS'photo'
p1616
(lp1617
S'photograph'
p1618
asS'goggles'
p1619
(lp1620
S'goggle'
p1621
asS'scattering'
p1622
(lp1623
S'dispersion'
p1624
aS'scatter'
p1625
aS'disperse'
p1626
aS'break_up'
p1627
aS'spread'
p1628
asS'rushing'
p1629
(lp1630
S'rush'
p1631
aS'haste'
p1632
aS'race'
p1633
aS'induce'
p1634
asS'jumpers'
p1635
(lp1636
S'jumper'
p1637
aS'sweater'
p1638
asS'adding'
p1639
(lp1640
S'add'
p1641
aS'lend'
p1642
aS'total'
p1643
asS'hills'
p1644
(lp1645
S'hill'
p1646
aS'mound'
p1647
asS'flooring'
p1648
(lp1649
S'floor'
p1650
aS'shock'
p1651
aS'deck'
p1652
asS'furry'
p1653
(lp1654
S'furred'
p1655
asS'spread'
p1656
(lp1657
S'gap'
p1658
aS'ranch'
p1659
aS'scatter'
p1660
aS'banquet'
p1661
aS'bedspread'
p1662
aS'unfold'
p1663
aS'circulate'
p1664
aS'go_around'
p1665
aS'diffuse'
p1666
aS'dispersed'
p1667
aS'outspread'
p1668
asS'teenager'
p1669
(lp1670
S'adolescent'
p1671
asS'has'
p1672
(lp1673
S'hour_angle'
p1674
aS'have'
p1675
aS'experience'
p1676
aS'own'
p1677
aS'get'
p1678
aS'consume'
p1679
aS'hold'
p1680
aS'induce'
p1681
aS'accept'
p1682
aS'receive'
p1683
aS'suffer'
p1684
aS'give_birth'
p1685
aS'take'
p1686
asS'tricking'
p1687
(lp1688
S'flim-flam'
p1689
asS'Three'
p1690
(lp1691
S'three'
p1692
aS'trey'
p1693
asS'boxer'
p1694
(lp1695
S'packer'
p1696
asS'descending'
p1697
(lp1698
S'descend'
p1699
aS'derive'
p1700
aS'condescend'
p1701
aS'fall'
p1702
asS'background'
p1703
(lp1704
S'setting'
p1705
aS'backdrop'
p1706
asS'clustered'
p1707
(lp1708
S'cluster'
p1709
aS'bunch'
p1710
aS'agglomerate'
p1711
asS'Grass'
p1712
(lp1713
S'grass'
p1714
aS'supergrass'
p1715
aS'eatage'
p1716
aS'pot'
p1717
aS'denounce'
p1718
asS'gift'
p1719
(lp1720
S'endowment'
p1721
aS'giving'
p1722
aS'endow'
p1723
aS'give'
p1724
asS'nude'
p1725
(lp1726
S'bare'
p1727
asS'performing'
p1728
(lp1729
S'acting'
p1730
aS'perform'
p1731
aS'do'
p1732
asS'pavement'
p1733
(lp1734
S'paving'
p1735
aS'sidewalk'
p1736
asS'steps'
p1737
(lp1738
S'stairs'
p1739
aS'measure'
p1740
aS'footstep'
p1741
aS'step'
p1742
aS'gradation'
p1743
aS'footfall'
p1744
aS'tone'
p1745
aS'footprint'
p1746
aS'dance_step'
p1747
aS'mistreat'
p1748
aS'pace'
p1749
asS'officer'
p1750
(lp1751
S'military_officer'
p1752
aS'officeholder'
p1753
aS'policeman'
p1754
asS'night'
p1755
(lp1756
S'nox'
p1757
asS'right'
p1758
(lp1759
S'right_field'
p1760
aS'correct'
p1761
aS'proper'
p1762
aS'good'
p1763
aS'veracious'
p1764
aS'properly'
p1765
aS'mighty'
p1766
aS'justly'
p1767
aS'correctly'
p1768
asS'old'
p1769
(lp1770
S'erstwhile'
p1771
aS'honest-to-god'
p1772
aS'previous'
p1773
asS'creek'
p1774
(lp1775
S'brook'
p1776
asS'crowd'
p1777
(lp1778
S'herd'
p1779
aS'push'
p1780
asS'people'
p1781
(lp1782
S'citizenry'
p1783
aS'multitude'
p1784
asS'elderly'
p1785
(lp1786
S'aged'
p1787
asS'eyeing'
p1788
(lp1789
S'eye'
p1790
asS'Rugby'
p1791
(lp1792
S'rugby'
p1793
asS'enemies'
p1794
(lp1795
S'enemy'
p1796
aS'foe'
p1797
asS'dirtying'
p1798
(lp1799
S'soiling'
p1800
aS'dirty'
p1801
asS'okra'
p1802
(lp1803
S'gumbo'
p1804
asS'bottom'
p1805
(lp1806
S'buttocks'
p1807
aS'bed'
p1808
aS'bottomland'
p1809
aS'penetrate'
p1810
asS'purple'
p1811
(lp1812
S'empurpled'
p1813
aS'imperial'
p1814
asS'Nobody'
p1815
(lp1816
S'cipher'
p1817
asS'ice'
p1818
(lp1819
S'frosting'
p1820
aS'methamphetamine'
p1821
aS'internal-combustion_engine'
p1822
aS'ice_rink'
p1823
aS'frost'
p1824
asS'rhino'
p1825
(lp1826
S'rhinoceros'
p1827
asS'filming'
p1828
(lp1829
S'film'
p1830
asS'Drinking'
p1831
(lp1832
S'drinking'
p1833
aS'drink'
p1834
aS'toast'
p1835
aS'drink_in'
p1836
asS'peel'
p1837
(lp1838
S'skin'
p1839
aS'peel_off'
p1840
aS'undress'
p1841
asS'Pedestrians'
p1842
(lp1843
S'pedestrian'
p1844
asS'corn'
p1845
(lp1846
S'corn_whiskey'
p1847
asS'pose'
p1848
(lp1849
S'airs'
p1850
aS'affectation'
p1851
aS'present'
p1852
aS'model'
p1853
aS'put'
p1854
aS'perplex'
p1855
asS'scarves'
p1856
(lp1857
S'scarf'
p1858
aS'scarf_joint'
p1859
asS'post'
p1860
(lp1861
S'military_post'
p1862
aS'position'
p1863
aS'mail'
p1864
aS'station'
p1865
aS'stake'
p1866
asS'super'
p1867
(lp1868
S'superintendent'
p1869
aS'ace'
p1870
aS'extremely'
p1871
asS'shaken'
p1872
(lp1873
S'shake'
p1874
aS'judder'
p1875
aS'rock'
p1876
aS'stimulate'
p1877
aS'jolted'
p1878
asS'puking'
p1879
(lp1880
S'vomit'
p1881
asS'dunking'
p1882
(lp1883
S'dunk'
p1884
asS'yelling'
p1885
(lp1886
S'shout'
p1887
aS'yell'
p1888
asS'newspapers'
p1889
(lp1890
S'newspaper'
p1891
asS'raised'
p1892
(lp1893
S'raise'
p1894
aS'grow'
p1895
aS'rear'
p1896
aS'lift'
p1897
aS'arouse'
p1898
aS'enhance'
p1899
aS'promote'
p1900
aS'recruit'
p1901
aS'resurrect'
p1902
aS'brocaded'
p1903
asS'float'
p1904
(lp1905
S'ice-cream_soda'
p1906
aS'air_bladder'
p1907
asS'chimp'
p1908
(lp1909
S'chimpanzee'
p1910
asS'sketch'
p1911
(lp1912
S'cartoon'
p1913
asS'down'
p1914
(lp1915
S'toss_off'
p1916
aS'devour'
p1917
aS'polish'
p1918
aS'depressed'
p1919
aS'gloomy'
p1920
asS'Few'
p1921
(lp1922
S'few'
p1923
asS'petting'
p1924
(lp1925
S'caressing'
p1926
aS'pet'
p1927
asS'flying'
p1928
(lp1929
S'flight'
p1930
aS'fly'
p1931
aS'flee'
p1932
aS'vanish'
p1933
aS'fast-flying'
p1934
asS'cosmetics'
p1935
(lp1936
S'cosmetic'
p1937
asS'fight'
p1938
(lp1939
S'battle'
p1940
aS'competitiveness'
p1941
aS'contend'
p1942
aS'crusade'
p1943
asS'stuck'
p1944
(lp1945
S'lodge'
p1946
aS'stay'
p1947
aS'adhere'
p1948
aS'stick'
p1949
aS'stand_by'
p1950
aS'cling'
p1951
aS'perplex'
p1952
asS'way'
p1953
(lp1954
S'manner'
p1955
aS'means'
p1956
aS'direction'
p1957
aS'room'
p1958
asS'call'
p1959
(lp1960
S'cry'
p1961
aS'birdcall'
p1962
aS'margin_call'
p1963
aS'call_option'
p1964
aS'name'
p1965
aS'shout'
p1966
aS'visit'
p1967
aS'address'
p1968
aS'bid'
p1969
aS'predict'
p1970
asS'launching'
p1971
(lp1972
S'introduction'
p1973
aS'establish'
p1974
aS'launch'
p1975
aS'plunge'
p1976
asS'Bread'
p1977
(lp1978
S'bread'
p1979
aS'boodle'
p1980
asS'head'
p1981
(lp1982
S'mind'
p1983
aS'fountainhead'
p1984
aS'capitulum'
p1985
aS'principal'
p1986
aS'promontory'
p1987
aS'forefront'
p1988
aS'pass'
p1989
aS'headway'
p1990
aS'point'
p1991
aS'question'
p1992
aS'heading'
p1993
aS'read/write_head'
p1994
aS'drumhead'
p1995
aS'oral_sex'
p1996
aS'lead'
p1997
aS'steer'
p1998
asS'snowy'
p1999
(lp2000
S'white'
p2001
aS'snow-clad'
p2002
aS'snow-white'
p2003
asS'landing'
p2004
(lp2005
S'land'
p2006
aS'bring'
p2007
aS'down'
p2008
asS'powerfully'
p2009
(lp2010
S'potently'
p2011
asS'dead'
p2012
(lp2013
S'all_in'
p2014
aS'abruptly'
p2015
aS'absolutely'
p2016
asS'removed'
p2017
(lp2018
S'remove'
p2019
aS'get_rid_of'
p2020
aS'take_out'
p2021
aS'absent'
p2022
aS'murder'
p2023
aS'distant'
p2024
asS'disassembling'
p2025
(lp2026
S'disassemble'
p2027
asS'hikers'
p2028
(lp2029
S'hiker'
p2030
asS'whisked'
p2031
(lp2032
S'whisk'
p2033
asS'open-air'
p2034
(lp2035
S'alfresco'
p2036
asS'horses'
p2037
(lp2038
S'horse'
p2039
aS'cavalry'
p2040
aS'sawhorse'
p2041
aS'knight'
p2042
asS'sticks'
p2043
(lp2044
S'stick'
p2045
aS'pin'
p2046
aS'joint'
p2047
aS'lodge'
p2048
aS'stay'
p2049
aS'adhere'
p2050
aS'stand_by'
p2051
aS'cling'
p2052
aS'perplex'
p2053
asS'classic'
p2054
(lp2055
S'authoritative'
p2056
aS'classical'
p2057
asS'muscular'
p2058
(lp2059
S'mesomorphic'
p2060
aS'brawny'
p2061
asS'sticky'
p2062
(lp2063
S'gluey'
p2064
aS'muggy'
p2065
aS'awkward'
p2066
asS'floating'
p2067
(lp2068
S'float'
p2069
aS'aimless'
p2070
asS'trip'
p2071
(lp2072
S'slip'
p2073
aS'tripper'
p2074
aS'stumble'
p2075
aS'travel'
p2076
asS'physical'
p2077
(lp2078
S'forcible'
p2079
asS'pipe'
p2080
(lp2081
S'organ_pipe'
p2082
aS'shriek'
p2083
asS'dying'
p2084
(lp2085
S'death'
p2086
aS'die'
p2087
aS'fail'
p2088
aS'anxious'
p2089
asS'no'
p2090
(lp2091
S'nobelium'
p2092
asS'tossing'
p2093
(lp2094
S'flip'
p2095
aS'chuck'
p2096
aS'convulse'
p2097
aS'discard'
p2098
aS'toss'
p2099
asS'handed'
p2100
(lp2101
S'pass'
p2102
aS'hand'
p2103
asS'setting'
p2104
(lp2105
S'mise_en_scene'
p2106
aS'context'
p2107
aS'place_setting'
p2108
aS'mount'
p2109
aS'put'
p2110
aS'determine'
p2111
aS'specify'
p2112
aS'set'
p2113
aS'fix'
p2114
aS'arrange'
p2115
aS'plant'
p2116
aS'jell'
p2117
aS'typeset'
p2118
aS'sic'
p2119
aS'place'
p2120
aS'rig'
p2121
aS'set_up'
p2122
aS'adjust'
p2123
aS'fructify'
p2124
aS'dress'
p2125
asS'holding'
p2126
(lp2127
S'retention'
p2128
aS'property'
p2129
aS'keep'
p2130
aS'hold'
p2131
aS'have'
p2132
aS'deem'
p2133
aS'harbor'
p2134
aS'restrain'
p2135
aS'retain'
p2136
aS'bear'
p2137
aS'accommodate'
p2138
aS'prevail'
p2139
aS'contain'
p2140
aS'reserve'
p2141
aS'defend'
p2142
aS'oblige'
p2143
aS'defy'
p2144
aS'apply'
p2145
aS'control'
p2146
aS'halt'
p2147
aS'carry'
p2148
aS'declare'
p2149
aS'agree'
p2150
asS'tie'
p2151
(lp2152
S'necktie'
p2153
aS'affiliation'
p2154
aS'link'
p2155
aS'draw'
p2156
aS'connect'
p2157
aS'bind'
p2158
aS'marry'
p2159
asS'picture'
p2160
(lp2161
S'painting'
p2162
aS'mental_picture'
p2163
aS'movie'
p2164
aS'video'
p2165
aS'word_picture'
p2166
aS'photograph'
p2167
aS'visualize'
p2168
asS'toad'
p2169
(lp2170
S'frog'
p2171
asS'messing'
p2172
(lp2173
S'mess'
p2174
asS'blokes'
p2175
(lp2176
S'chap'
p2177
asS'rolling'
p2178
(lp2179
S'peal'
p2180
aS'wheeling'
p2181
aS'roll'
p2182
aS'wheel'
p2183
aS'roll_out'
p2184
aS'wind'
p2185
aS'hustle'
p2186
aS'seethe'
p2187
aS'rolled'
p2188
asS'sniffed'
p2189
(lp2190
S'sniff'
p2191
asS'American'
p2192
(lp2193
S'american'
p2194
aS'american_english'
p2195
asS'together'
p2196
(lp2197
S'in_concert'
p2198
asS'jacket'
p2199
(lp2200
S'crown'
p2201
asS'serious'
p2202
(lp2203
S'dangerous'
p2204
aS'good'
p2205
aS'unplayful'
p2206
asS'treading'
p2207
(lp2208
S'step'
p2209
aS'tread'
p2210
asS'Okra'
p2211
(lp2212
S'okra'
p2213
aS'gumbo'
p2214
asS'dance'
p2215
(lp2216
S'dancing'
p2217
asS'rod'
p2218
(lp2219
S'perch'
p2220
aS'gat'
p2221
asS'by'
p2222
(lp2223
S'aside'
p2224
asS'skiing'
p2225
(lp2226
S'ski'
p2227
asS'chair'
p2228
(lp2229
S'professorship'
p2230
aS'president'
p2231
aS'electric_chair'
p2232
aS'moderate'
p2233
asS'father'
p2234
(lp2235
S'forefather'
p2236
aS'church_father'
p2237
aS'founder'
p2238
aS'don'
p2239
aS'beget'
p2240
asS'bicycles'
p2241
(lp2242
S'bicycle'
p2243
asS'brown'
p2244
(lp2245
S'brown_university'
p2246
aS'embrown'
p2247
asS'soaker'
p2248
(lp2249
S'downpour'
p2250
aS'alcoholic'
p2251
asS'cook'
p2252
(lp2253
S'fudge'
p2254
asS'dim'
p2255
(lp2256
S'blind'
p2257
aS'blur'
p2258
aS'dimmed'
p2259
aS'black'
p2260
aS'dense'
p2261
asS'beating'
p2262
(lp2263
S'beat'
p2264
aS'drum'
p2265
aS'tick'
p2266
aS'pulsate'
p2267
aS'outwit'
p2268
aS'perplex'
p2269
aS'exhaust'
p2270
asS'clouds'
p2271
(lp2272
S'cloud'
p2273
aS'swarm'
p2274
aS'overcast'
p2275
aS'obscure'
p2276
aS'defile'
p2277
aS'mottle'
p2278
asS'gun'
p2279
(lp2280
S'artillery'
p2281
aS'gunman'
p2282
aS'grease-gun'
p2283
aS'accelerator'
p2284
asS'bikers'
p2285
(lp2286
S'rockers'
p2287
asS'guitars'
p2288
(lp2289
S'guitar'
p2290
asS'Noodles'
p2291
(lp2292
S'noodle'
p2293
aS'attic'
p2294
asS'woven'
p2295
(lp2296
S'weave'
p2297
aS'waver'
p2298
asS'pork'
p2299
(lp2300
S'pork_barrel'
p2301
asS'work'
p2302
(lp2303
S'employment'
p2304
aS'study'
p2305
aS'workplace'
p2306
aS'oeuvre'
p2307
aS'function'
p2308
aS'exercise'
p2309
aS'make'
p2310
aS'bring'
p2311
aS'cultivate'
p2312
aS'influence'
p2313
aS'shape'
p2314
aS'knead'
p2315
aS'exploit'
p2316
aS'solve'
p2317
aS'ferment'
p2318
aS'sour'
p2319
asS'seasoning'
p2320
(lp2321
S'flavorer'
p2322
aS'season'
p2323
aS'temper'
p2324
asS'sign'
p2325
(lp2326
S'signal'
p2327
aS'signboard'
p2328
aS'sign_of_the_zodiac'
p2329
aS'polarity'
p2330
aS'augury'
p2331
aS'bless'
p2332
aS'gestural'
p2333
asS'chopping'
p2334
(lp2335
S'chop'
p2336
asS'shirts'
p2337
(lp2338
S'shirt'
p2339
asS'patient'
p2340
(lp2341
S'affected_role'
p2342
asS'chicken'
p2343
(lp2344
S'wimp'
p2345
asS'drinks'
p2346
(lp2347
S'drink'
p2348
aS'beverage'
p2349
aS'swallow'
p2350
aS'toast'
p2351
aS'drink_in'
p2352
asS'stands'
p2353
(lp2354
S'base'
p2355
aS'stand'
p2356
aS'rack'
p2357
aS'point_of_view'
p2358
aS'stall'
p2359
aS'bandstand'
p2360
aS'digest'
p2361
aS'resist'
p2362
asS'celebrated'
p2363
(lp2364
S'observe'
p2365
aS'celebrate'
p2366
aS'lionize'
p2367
asS'uniform'
p2368
(lp2369
S'consistent'
p2370
aS'undifferentiated'
p2371
asS'current'
p2372
(lp2373
S'stream'
p2374
asS'lazily'
p2375
(lp2376
S'idly'
p2377
asS'falling'
p2378
(lp2379
S'fall'
p2380
aS'descend'
p2381
aS'precipitate'
p2382
aS'decrease'
p2383
aS'accrue'
p2384
aS'hang'
p2385
aS'dropping'
p2386
asS'Rollerbladers'
p2387
(lp2388
S'rollerblader'
p2389
asS'heavily'
p2390
(lp2391
S'heavy'
p2392
asS'makeup'
p2393
(lp2394
S'constitution'
p2395
asS'floats'
p2396
(lp2397
S'float'
p2398
aS'ice-cream_soda'
p2399
aS'air_bladder'
p2400
asS'water'
p2401
(lp2402
S'body_of_water'
p2403
aS'water_system'
p2404
aS'urine'
p2405
asS'smearing'
p2406
(lp2407
S'smear'
p2408
aS'daub'
p2409
aS'defame'
p2410
asS'groups'
p2411
(lp2412
S'group'
p2413
asS'alone'
p2414
(lp2415
S'entirely'
p2416
asS'roaring'
p2417
(lp2418
S'boom'
p2419
aS'bellow'
p2420
aS'roar'
p2421
aS'thunder'
p2422
aS'howl'
p2423
aS'booming'
p2424
asS'box'
p2425
(lp2426
S'corner'
p2427
asS'boy'
p2428
(lp2429
S'male_child'
p2430
aS'son'
p2431
asS'flames'
p2432
(lp2433
S'fire'
p2434
aS'flare'
p2435
aS'flame'
p2436
asS'battling'
p2437
(lp2438
S'battle'
p2439
asS'dusty'
p2440
(lp2441
S'cold'
p2442
asS'studied'
p2443
(lp2444
S'analyze'
p2445
aS'study'
p2446
aS'learn'
p2447
asS'bow'
p2448
(lp2449
S'submit'
p2450
aS'crouch'
p2451
asS'sharpening'
p2452
(lp2453
S'sharpen'
p2454
aS'focus'
p2455
asS'bangs'
p2456
(lp2457
S'knock'
p2458
aS'bang'
p2459
aS'hit'
p2460
aS'slam'
p2461
aS'sleep_together'
p2462
aS'spang'
p2463
asS'boa'
p2464
(lp2465
S'feather_boa'
p2466
asS'teenage'
p2467
(lp2468
S'adolescent'
p2469
asS'hiking'
p2470
(lp2471
S'hike'
p2472
asS'losing'
p2473
(lp2474
S'lose'
p2475
aS'misplace'
p2476
aS'fall_back'
p2477
aS'miss'
p2478
aS'suffer'
p2479
asS'fake'
p2480
(lp2481
S'imposter'
p2482
aS'juke'
p2483
aS'forge'
p2484
aS'fudge'
p2485
aS"talk_through_one's_hat"
p2486
aS'bogus'
p2487
asS'market'
p2488
(lp2489
S'grocery_store'
p2490
aS'marketplace'
p2491
aS'commercialize'
p2492
asS'sledgehammer'
p2493
(lp2494
S'maul'
p2495
asS'handled'
p2496
(lp2497
S'manage'
p2498
aS'treat'
p2499
aS'cover'
p2500
aS'handle'
p2501
aS'wield'
p2502
asS'working'
p2503
(lp2504
S'work'
p2505
aS'function'
p2506
aS'exercise'
p2507
aS'make'
p2508
aS'bring'
p2509
aS'cultivate'
p2510
aS'influence'
p2511
aS'shape'
p2512
aS'knead'
p2513
aS'exploit'
p2514
aS'solve'
p2515
aS'ferment'
p2516
aS'sour'
p2517
aS'running'
p2518
asS'sports'
p2519
(lp2520
S'sport'
p2521
aS'mutant'
p2522
aS'fun'
p2523
aS'frolic'
p2524
asS'wood'
p2525
(lp2526
S'forest'
p2527
aS'woodwind'
p2528
asS'prey'
p2529
(lp2530
S'raven'
p2531
asS'angels'
p2532
(lp2533
S'angel'
p2534
aS'saint'
p2535
asS'loving'
p2536
(lp2537
S'love'
p2538
aS'sleep_together'
p2539
asS'smeared'
p2540
(lp2541
S'smear'
p2542
aS'daub'
p2543
aS'defame'
p2544
asS'teased'
p2545
(lp2546
S'tease'
p2547
asS'tailing'
p2548
(lp2549
S'shadowing'
p2550
aS'chase'
p2551
aS'dock'
p2552
aS'tail'
p2553
asS'beers'
p2554
(lp2555
S'beer'
p2556
asS'flapping'
p2557
(lp2558
S'flap'
p2559
aS'roll'
p2560
aS'beat'
p2561
aS'dither'
p2562
asS'riders'
p2563
(lp2564
S'rider'
p2565
aS'passenger'
p2566
asS'benches'
p2567
(lp2568
S'bench'
p2569
aS'terrace'
p2570
aS'judiciary'
p2571
aS'workbench'
p2572
asS'fly'
p2573
(lp2574
S'tent-fly'
p2575
aS'flee'
p2576
aS'vanish'
p2577
asS'logos'
p2578
(lp2579
S'son'
p2580
aS'logo'
p2581
asS'cows'
p2582
(lp2583
S'cattle'
p2584
aS'cow'
p2585
aS'overawe'
p2586
asS'car'
p2587
(lp2588
S'cable_car'
p2589
asS'cap'
p2590
(lp2591
S'detonator'
p2592
aS'hood'
p2593
aS'ceiling'
p2594
aS'crown'
p2595
aS'capital'
p2596
asS'cat'
p2597
(lp2598
S'guy'
p2599
aS'kat'
p2600
aS"cat-o'-nine-tails"
p2601
aS'caterpillar'
p2602
aS'big_cat'
p2603
aS'computerized_tomography'
p2604
aS'vomit'
p2605
asS'can'
p2606
(lp2607
S'buttocks'
p2608
aS'toilet'
p2609
aS'displace'
p2610
asS'following'
p2611
(lp2612
S'pursuit'
p2613
aS'follow'
p2614
aS'postdate'
p2615
aS'comply'
p2616
aS'adopt'
p2617
aS'take_after'
p2618
aS'trace'
p2619
aS'watch'
p2620
aS'succeed'
p2621
aS'play_along'
p2622
aS'keep_up'
p2623
aS'come'
p2624
aS'be'
p2625
aS'surveil'
p2626
aS'pursue'
p2627
aS'stick_to'
p2628
asS'making'
p2629
(lp2630
S'devising'
p2631
aS'qualification'
p2632
aS'make'
p2633
aS'induce'
p2634
aS'cause'
p2635
aS'produce'
p2636
aS'draw'
p2637
aS'create'
p2638
aS'gain'
p2639
aS'do'
p2640
aS'form'
p2641
aS'reach'
p2642
aS'construct'
p2643
aS'name'
p2644
aS'have'
p2645
aS'lay_down'
p2646
aS'hold'
p2647
aS'take'
p2648
aS'stool'
p2649
aS'cook'
p2650
aS'seduce'
p2651
asS'Children'
p2652
(lp2653
S'child'
p2654
asS'breeds'
p2655
(lp2656
S'breed'
p2657
aS'engender'
p2658
asS'heart'
p2659
(lp2660
S'center'
p2661
aS'kernel'
p2662
aS'affection'
p2663
asS'stream'
p2664
(lp2665
S'flow'
p2666
aS'current'
p2667
aS'pour'
p2668
asS'Ingredients'
p2669
(lp2670
S'ingredient'
p2671
aS'component'
p2672
asS'drawer'
p2673
(lp2674
S'draftsman'
p2675
asS'posing'
p2676
(lp2677
S'sitting'
p2678
aS'present'
p2679
aS'model'
p2680
aS'pose'
p2681
aS'put'
p2682
aS'perplex'
p2683
asS'dropped'
p2684
(lp2685
S'drop'
p2686
aS'sink'
p2687
aS'fell'
p2688
aS'spend'
p2689
aS'flatten'
p2690
aS'dangle'
p2691
aS'dismiss'
p2692
aS'dribble'
p2693
aS'shed'
p2694
aS'neglect'
p2695
aS'devolve'
p2696
asS'sharp'
p2697
(lp2698
S'crisp'
p2699
aS'acuate'
p2700
aS'acute'
p2701
aS'astute'
p2702
aS'shrill'
p2703
aS'abrupt'
p2704
aS'sharply'
p2705
asS'clothing'
p2706
(lp2707
S'dress'
p2708
aS'invest'
p2709
aS'clothe'
p2710
asS'pink'
p2711
(lp2712
S'pinko'
p2713
aS'tap'
p2714
asS'cans'
p2715
(lp2716
S'can'
p2717
aS'buttocks'
p2718
aS'toilet'
p2719
aS'displace'
p2720
asS'buttered'
p2721
(lp2722
S'butter'
p2723
asS'ping'
p2724
(lp2725
S'pink'
p2726
asS'pine'
p2727
(lp2728
S'ache'
p2729
asS'skates'
p2730
(lp2731
S'skate'
p2732
asS'loaves'
p2733
(lp2734
S'loaf_of_bread'
p2735
aS'loaf'
p2736
asS'map'
p2737
(lp2738
S'function'
p2739
asS'mat'
p2740
(lp2741
S'master_of_arts_in_teaching'
p2742
aS'flatness'
p2743
aS'entangle'
p2744
aS'felt'
p2745
aS'flat'
p2746
asS'staircase'
p2747
(lp2748
S'stairway'
p2749
asS'burrowing'
p2750
(lp2751
S'burrow'
p2752
asS'boards'
p2753
(lp2754
S'board'
p2755
aS'display_panel'
p2756
aS'dining_table'
p2757
aS'control_panel'
p2758
aS'circuit_board'
p2759
asS'designed'
p2760
(lp2761
S'plan'
p2762
aS'design'
p2763
asS'court'
p2764
(lp2765
S'motor_hotel'
p2766
aS'woo'
p2767
asS'guys'
p2768
(lp2769
S'guy'
p2770
aS'ridicule'
p2771
asS'lifting'
p2772
(lp2773
S'raise'
p2774
aS'lift'
p2775
aS'rise'
p2776
aS'revoke'
p2777
aS'pilfer'
p2778
aS'hoist'
p2779
aS'plagiarize'
p2780
aS'rustle'
p2781
aS'airlift'
p2782
aS'face-lift'
p2783
asS'man'
p2784
(lp2785
S'serviceman'
p2786
aS'homo'
p2787
aS'valet'
p2788
aS'world'
p2789
asS'scrambling'
p2790
(lp2791
S'scramble'
p2792
aS'clamber'
p2793
aS'beat'
p2794
asS'surfing'
p2795
(lp2796
S'surfboard'
p2797
aS'browse'
p2798
aS'surf'
p2799
asS'noses'
p2800
(lp2801
S'nose'
p2802
aS'nozzle'
p2803
aS'intrude'
p2804
aS'scent'
p2805
aS'nuzzle'
p2806
asS'liquid'
p2807
(lp2808
S'melted'
p2809
aS'fluent'
p2810
aS'fluid'
p2811
asS'candles'
p2812
(lp2813
S'candle'
p2814
asS'darkened'
p2815
(lp2816
S'darken'
p2817
asS'truck'
p2818
(lp2819
S'hand_truck'
p2820
asS'tall'
p2821
(lp2822
S'grandiloquent'
p2823
aS'improbable'
p2824
asS'pulled'
p2825
(lp2826
S'pull'
p2827
aS'attract'
p2828
aS'perpetrate'
p2829
aS'draw'
p2830
aS'rend'
p2831
aS'pluck'
p2832
aS'extract'
p2833
asS'talk'
p2834
(lp2835
S'lecture'
p2836
aS'speak'
p2837
aS'spill'
p2838
aS'spill_the_beans'
p2839
asS'cute'
p2840
(lp2841
S'cunning'
p2842
asS'serving'
p2843
(lp2844
S'helping'
p2845
aS'service'
p2846
aS'serve'
p2847
aS'suffice'
p2848
asS'flips'
p2849
(lp2850
S'somersault'
p2851
aS'flip'
p2852
aS'pass'
p2853
aS'throw'
p2854
aS'flick'
p2855
aS'interchange'
p2856
asS'hiring'
p2857
(lp2858
S'hire'
p2859
aS'rent'
p2860
aS'lease'
p2861
asS'Masked'
p2862
(lp2863
S'dissemble'
p2864
aS'mask'
p2865
aS'disguise'
p2866
aS'cloaked'
p2867
aS'masked'
p2868
asS'cuts'
p2869
(lp2870
S'cut'
p2871
aS'stinger'
p2872
aS'deletion'
p2873
aS'snub'
p2874
aS'baseball_swing'
p2875
aS'reduce'
p2876
aS'swerve'
p2877
aS'write_out'
p2878
aS'edit'
p2879
aS'hack'
p2880
aS'switch_off'
p2881
aS'ignore'
p2882
aS'abridge'
p2883
aS'dilute'
p2884
aS'geld'
p2885
asS'cold'
p2886
(lp2887
S'coldness'
p2888
asS'still'
p2889
(lp2890
S'hush'
p2891
aS'distillery'
p2892
aS'calm'
p2893
aS'inactive'
p2894
aS'silent'
p2895
aS'placid'
p2896
aS'however'
p2897
aS'even'
p2898
asS'penciling'
p2899
(lp2900
S'pencil'
p2901
asS'monitor'
p2902
(lp2903
S'proctor'
p2904
aS'admonisher'
p2905
asS'cheerleaders'
p2906
(lp2907
S'cheerleader'
p2908
asS'platform'
p2909
(lp2910
S'chopine'
p2911
asS'window'
p2912
(lp2913
S'windowpane'
p2914
asS'Broccoli'
p2915
(lp2916
S'broccoli'
p2917
asS'gray'
p2918
(lp2919
S'grey'
p2920
asS'courageously'
p2921
(lp2922
S'bravely'
p2923
asS'Young'
p2924
(lp2925
S'young'
p2926
aS'new'
p2927
aS'youthful'
p2928
aS'unseasoned'
p2929
asS'touching'
p2930
(lp2931
S'touch'
p2932
aS'refer'
p2933
aS'affect'
p2934
aS'reach'
p2935
aS'equal'
p2936
aS'allude'
p2937
aS'partake'
p2938
aS'tint'
p2939
aS'affecting'
p2940
asS'drilling'
p2941
(lp2942
S'boring'
p2943
aS'bore'
p2944
aS'drill'
p2945
asS'runners'
p2946
(lp2947
S'smuggler'
p2948
aS'runner'
p2949
aS'base_runner'
p2950
aS'stolon'
p2951
aS'ball_carrier'
p2952
asS'wagon'
p2953
(lp2954
S'police_van'
p2955
aS'big_dipper'
p2956
aS'beach_wagon'
p2957
asS'corners'
p2958
(lp2959
S'corner'
p2960
aS'recess'
p2961
asS'rock'
p2962
(lp2963
S'rock_candy'
p2964
aS"rock_'n'_roll"
p2965
asS'carelessly'
p2966
(lp2967
S'incautiously'
p2968
aS'rakishly'
p2969
asS'turtle'
p2970
(lp2971
S'turtleneck'
p2972
aS'capsize'
p2973
asS'square'
p2974
(lp2975
S'public_square'
p2976
aS'feather'
p2977
aS'straight'
p2978
aS'hearty'
p2979
aS'squarely'
p2980
asS'torch'
p2981
(lp2982
S'common_mullein'
p2983
aS'flashlight'
p2984
aS'blowtorch'
p2985
asS'catching'
p2986
(lp2987
S'detection'
p2988
aS'catch'
p2989
aS'get'
p2990
aS'hitch'
p2991
aS'capture'
p2992
aS'overtake'
p2993
aS'watch'
p2994
aS'trip_up'
p2995
asS'sponsor'
p2996
(lp2997
S'patron'
p2998
aS'presenter'
p2999
aS'patronize'
p3000
asS'girl'
p3001
(lp3002
S'female_child'
p3003
aS'daughter'
p3004
aS'girlfriend'
p3005
asS'living'
p3006
(lp3007
S'life'
p3008
aS'animation'
p3009
aS'support'
p3010
aS'populate'
p3011
aS'live'
p3012
aS'survive'
p3013
aS'exist'
p3014
aS'be'
p3015
aS'know'
p3016
aS'surviving'
p3017
asS'shown'
p3018
(lp3019
S'show'
p3020
aS'prove'
p3021
aS'testify'
p3022
aS'picture'
p3023
aS'express'
p3024
aS'indicate'
p3025
aS'read'
p3026
aS'usher'
p3027
asS'opened'
p3028
(lp3029
S'open'
p3030
aS'unfold'
p3031
aS'afford'
p3032
asS'space'
p3033
(lp3034
S'outer_space'
p3035
aS'distance'
p3036
aS'quad'
p3037
asS'looking'
p3038
(lp3039
S'look'
p3040
aS'search'
p3041
aS'front'
p3042
aS'attend'
p3043
aS'expect'
p3044
aS'count'
p3045
asS'exploding'
p3046
(lp3047
S'explode'
p3048
aS'detonate'
p3049
asS'receiving'
p3050
(lp3051
S'receive'
p3052
aS'pick_up'
p3053
aS'experience'
p3054
aS'welcome'
p3055
aS'meet'
p3056
aS'get'
p3057
asS'attended'
p3058
(lp3059
S'attend'
p3060
aS'serve'
p3061
aS'accompanied'
p3062
asS'cars'
p3063
(lp3064
S'car'
p3065
aS'cable_car'
p3066
asS'cart'
p3067
(lp3068
S'handcart'
p3069
aS'haul'
p3070
asS'bringing'
p3071
(lp3072
S'delivery'
p3073
aS'bring'
p3074
aS'institute'
p3075
aS'lend'
p3076
aS'fetch'
p3077
asS'explorers'
p3078
(lp3079
S'explorer'
p3080
aS'internet_explorer'
p3081
asS'card'
p3082
(lp3083
S'wag'
p3084
aS'poster'
p3085
aS'calling_card'
p3086
aS'menu'
p3087
aS'batting_order'
p3088
aS'circuit_board'
p3089
aS'tease'
p3090
asS'training'
p3091
(lp3092
S'education'
p3093
aS'train'
p3094
aS'discipline'
p3095
aS'prepare'
p3096
aS'educate'
p3097
aS'aim'
p3098
aS'coach'
p3099
aS'trail'
p3100
asS'carnival'
p3101
(lp3102
S'circus'
p3103
asS'headphones'
p3104
(lp3105
S'earphone'
p3106
asS'peppering'
p3107
(lp3108
S'pepper'
p3109
asS'Sign'
p3110
(lp3111
S'sign'
p3112
aS'signal'
p3113
aS'signboard'
p3114
aS'sign_of_the_zodiac'
p3115
aS'polarity'
p3116
aS'augury'
p3117
aS'bless'
p3118
aS'gestural'
p3119
asS'swing'
p3120
(lp3121
S'lilt'
p3122
aS'golf_stroke'
p3123
aS'baseball_swing'
p3124
aS'dangle'
p3125
asS'teammates'
p3126
(lp3127
S'teammate'
p3128
asS'cheese'
p3129
(lp3130
S'tall_mallow'
p3131
asS'striking'
p3132
(lp3133
S'contact'
p3134
aS'hit'
p3135
aS'strike'
p3136
aS'affect'
p3137
aS'fall'
p3138
aS'come_to'
p3139
aS'fall_upon'
p3140
aS'assume'
p3141
aS'mint'
p3142
aS'strickle'
p3143
aS'dramatic'
p3144
aS'outstanding'
p3145
asS'There'
p3146
(lp3147
S'there'
p3148
asS'flipping'
p3149
(lp3150
S'flip'
p3151
aS'throw'
p3152
aS'flick'
p3153
aS'interchange'
p3154
asS'one'
p3155
(lp3156
S'matchless'
p3157
asS'fast'
p3158
(lp3159
S'debauched'
p3160
aS'flying'
p3161
aS'firm'
p3162
asS'ring'
p3163
(lp3164
S'hoop'
p3165
aS'closed_chain'
p3166
aS'gang'
p3167
aS'band'
p3168
aS'resound'
p3169
aS'call'
p3170
aS'surround'
p3171
asS'open'
p3172
(lp3173
S'outdoors'
p3174
aS'unfold'
p3175
aS'afford'
p3176
aS'exposed'
p3177
aS'assailable'
p3178
aS'loose'
p3179
aS'receptive'
p3180
aS'overt'
p3181
aS'capable'
p3182
aS'clear'
p3183
aS'candid'
p3184
asS'given'
p3185
(lp3186
S'give'
p3187
aS'yield'
p3188
aS'hold'
p3189
aS'render'
p3190
aS'impart'
p3191
aS'establish'
p3192
aS'sacrifice'
p3193
aS'pass'
p3194
aS'grant'
p3195
aS'move_over'
p3196
aS'feed'
p3197
aS'contribute'
p3198
aS'collapse'
p3199
aS'afford'
p3200
aS'apt'
p3201
asS'sheet'
p3202
(lp3203
S'plane'
p3204
aS'tabloid'
p3205
aS'sail'
p3206
asS'silent'
p3207
(lp3208
S'mum'
p3209
aS'dumb'
p3210
asS'caught'
p3211
(lp3212
S'catch'
p3213
aS'get'
p3214
aS'hitch'
p3215
aS'capture'
p3216
aS'overtake'
p3217
aS'watch'
p3218
aS'trip_up'
p3219
asS'plastic'
p3220
(lp3221
S'credit_card'
p3222
aS'fictile'
p3223
aS'formative'
p3224
asS'Garlic'
p3225
(lp3226
S'garlic'
p3227
asS'stuffed'
p3228
(lp3229
S'stuff'
p3230
aS'thrust'
p3231
aS'gorge'
p3232
aS'farce'
p3233
asS'typing'
p3234
(lp3235
S'type'
p3236
asS'white'
p3237
(lp3238
S'egg_white'
p3239
aS'flannel'
p3240
aS'whiten'
p3241
aS'blank'
p3242
aS'ashen'
p3243
asS'puddle'
p3244
(lp3245
S'pool'
p3246
aS'muddle'
p3247
aS'addle'
p3248
aS'make'
p3249
asS'speaking'
p3250
(lp3251
S'public_speaking'
p3252
aS'talk'
p3253
aS'speak'
p3254
aS'address'
p3255
asS'eyes'
p3256
(lp3257
S'eye'
p3258
aS'center'
p3259
asS'mostly'
p3260
(lp3261
S'largely'
p3262
aS'by_and_large'
p3263
asS'massaged'
p3264
(lp3265
S'massage'
p3266
asS'screwing'
p3267
(lp3268
S'fuck'
p3269
aS'sleep_together'
p3270
aS'screw'
p3271
aS'cheat'
p3272
asS'hut'
p3273
(lp3274
S'hovel'
p3275
asS'flowers'
p3276
(lp3277
S'flower'
p3278
aS'bloom'
p3279
asS'sailing'
p3280
(lp3281
S'seafaring'
p3282
aS'glide'
p3283
aS'sail'
p3284
aS'sweep'
p3285
aS'voyage'
p3286
asS'coats'
p3287
(lp3288
S'coat'
p3289
aS'coating'
p3290
asS'knives'
p3291
(lp3292
S'knife'
p3293
aS'tongue'
p3294
asS'Runners'
p3295
(lp3296
S'smuggler'
p3297
aS'runner'
p3298
aS'base_runner'
p3299
aS'stolon'
p3300
aS'ball_carrier'
p3301
asS'trekking'
p3302
(lp3303
S'trek'
p3304
asS'cards'
p3305
(lp3306
S'card_game'
p3307
aS'card'
p3308
aS'wag'
p3309
aS'poster'
p3310
aS'calling_card'
p3311
aS'menu'
p3312
aS'batting_order'
p3313
aS'circuit_board'
p3314
aS'tease'
p3315
asS'happy'
p3316
(lp3317
S'felicitous'
p3318
aS'glad'
p3319
asS'gathering'
p3320
(lp3321
S'assembly'
p3322
aS'gather'
p3323
aS'meet'
p3324
aS'accumulate'
p3325
aS'assemble'
p3326
aS'gain'
p3327
asS'lick'
p3328
(lp3329
S'salt_lick'
p3330
aS'punch'
p3331
aS'cream'
p3332
aS'solve'
p3333
aS'lap'
p3334
asS'sad'
p3335
(lp3336
S'deplorable'
p3337
asS'clung'
p3338
(lp3339
S'cling'
p3340
asS'hooded'
p3341
(lp3342
S'hood'
p3343
asS'veteran'
p3344
(lp3345
S'seasoned'
p3346
asS'sewing'
p3347
(lp3348
S'sew'
p3349
asS'zoo'
p3350
(lp3351
S'menagerie'
p3352
asS'note'
p3353
(lp3354
S'bill'
p3355
aS'eminence'
p3356
aS'notice'
p3357
asS'interior'
p3358
(lp3359
S'inside'
p3360
aS'department_of_the_interior'
p3361
aS'home'
p3362
aS'inner'
p3363
asS'upside'
p3364
(lp3365
S'top'
p3366
asS'surf'
p3367
(lp3368
S'surfboard'
p3369
aS'browse'
p3370
asS'handing'
p3371
(lp3372
S'pass'
p3373
aS'hand'
p3374
asS'skinned'
p3375
(lp3376
S'clamber'
p3377
aS'skin'
p3378
aS'bark'
p3379
asS'maneuvering'
p3380
(lp3381
S'steer'
p3382
aS'maneuver'
p3383
aS'manoeuver'
p3384
asS'shade'
p3385
(lp3386
S'nuance'
p3387
aS'tad'
p3388
aS'ghost'
p3389
aS'shadow'
p3390
asS'track'
p3391
(lp3392
S'path'
p3393
aS'lead'
p3394
aS'racetrack'
p3395
aS'cut'
p3396
aS'chase'
p3397
aS'traverse'
p3398
asS'falls'
p3399
(lp3400
S'waterfall'
p3401
aS'fall'
p3402
aS'spill'
p3403
aS'descent'
p3404
aS'capitulation'
p3405
aS'twilight'
p3406
aS'drop'
p3407
aS'descend'
p3408
aS'precipitate'
p3409
aS'decrease'
p3410
aS'accrue'
p3411
aS'hang'
p3412
asS'boiling'
p3413
(lp3414
S'boil'
p3415
aS'churn'
p3416
aS'seethe'
p3417
asS'lookers'
p3418
(lp3419
S'spectator'
p3420
aS'smasher'
p3421
asS'sheets'
p3422
(lp3423
S'sheet'
p3424
aS'plane'
p3425
aS'tabloid'
p3426
aS'sail'
p3427
asS'pair'
p3428
(lp3429
S'couple'
p3430
aS'match'
p3431
aS'copulate'
p3432
asS'knee'
p3433
(lp3434
S'stifle'
p3435
asS'tugging'
p3436
(lp3437
S'tug'
p3438
aS'lug'
p3439
asS'sprinting'
p3440
(lp3441
S'sprint'
p3442
asS'cloth'
p3443
(lp3444
S'fabric'
p3445
asS'discarding'
p3446
(lp3447
S'discard'
p3448
asS'bicyclist'
p3449
(lp3450
S'cyclist'
p3451
asS'hungry'
p3452
(lp3453
S'athirst'
p3454
asS'gracefully'
p3455
(lp3456
S'graciously'
p3457
asS'axe'
p3458
(lp3459
S'ax'
p3460
asS'shop'
p3461
(lp3462
S'workshop'
p3463
aS'shop_class'
p3464
aS'patronize'
p3465
aS'denounce'
p3466
asS'perch'
p3467
(lp3468
S'alight'
p3469
asS'walking'
p3470
(lp3471
S'walk'
p3472
aS'walk-to'
p3473
asS'show'
p3474
(lp3475
S'display'
p3476
aS'appearance'
p3477
aS'prove'
p3478
aS'testify'
p3479
aS'picture'
p3480
aS'express'
p3481
aS'indicate'
p3482
aS'read'
p3483
aS'usher'
p3484
asS'bright'
p3485
(lp3486
S'undimmed'
p3487
aS'brilliantly'
p3488
asS'shoe'
p3489
(lp3490
S'horseshoe'
p3491
aS'brake_shoe'
p3492
asS'corner'
p3493
(lp3494
S'recess'
p3495
asS'line'
p3496
(lp3497
S'argumentation'
p3498
aS'cable'
p3499
aS'course'
p3500
aS'wrinkle'
p3501
aS'pipeline'
p3502
aS'telephone_line'
p3503
aS'lineage'
p3504
aS'occupation'
p3505
aS'channel'
p3506
aS'agate_line'
p3507
aS'credit_line'
p3508
aS'tune'
p3509
aS'note'
p3510
aS'production_line'
p3511
aS'trace'
p3512
asS'ground'
p3513
(lp3514
S'land'
p3515
aS'reason'
p3516
aS'earth'
p3517
aS'footing'
p3518
aS'background'
p3519
aS'flat_coat'
p3520
aS'anchor'
p3521
aS'prime'
p3522
aS'establish'
p3523
aS'crunch'
p3524
aS'grate'
p3525
aS'labor'
p3526
aS'grind'
p3527
asS'stair'
p3528
(lp3529
S'step'
p3530
asS'behind'
p3531
(lp3532
S'buttocks'
p3533
asS'grated'
p3534
(lp3535
S'grate'
p3536
aS'eat_into'
p3537
aS'scrape'
p3538
asS'only'
p3539
(lp3540
S'lone'
p3541
aS'alone'
p3542
aS'merely'
p3543
aS'entirely'
p3544
asS'going'
p3545
(lp3546
S'departure'
p3547
aS'passing'
p3548
aS'travel'
p3549
aS'go'
p3550
aS'become'
p3551
aS'run'
p3552
aS'proceed'
p3553
aS'sound'
p3554
aS'function'
p3555
aS'run_low'
p3556
aS'move'
p3557
aS'survive'
p3558
aS'die'
p3559
aS'belong'
p3560
aS'start'
p3561
aS'blend'
p3562
aS'fit'
p3563
aS'rifle'
p3564
aS'plump'
p3565
aS'fail'
p3566
asS'black'
p3567
(lp3568
S'total_darkness'
p3569
aS'blacken'
p3570
aS'bootleg'
p3571
asS'hockey'
p3572
(lp3573
S'field_hockey'
p3574
aS'ice_hockey'
p3575
asS'equipped'
p3576
(lp3577
S'equip'
p3578
aS'furnished'
p3579
asS'guarded'
p3580
(lp3581
S'guard'
p3582
aS'defend'
p3583
asS'suitcases'
p3584
(lp3585
S'bag'
p3586
asS'begging'
p3587
(lp3588
S'beggary'
p3589
aS'beg'
p3590
aS'solicit'
p3591
asS'spraying'
p3592
(lp3593
S'crop-dusting'
p3594
aS'spray'
p3595
asS'frolicking'
p3596
(lp3597
S'frolic'
p3598
asS'keyboards'
p3599
(lp3600
S'keyboard'
p3601
asS'morning'
p3602
(lp3603
S'good_morning'
p3604
aS'dawn'
p3605
asS'naked'
p3606
(lp3607
S'bare'
p3608
asS'skyline'
p3609
(lp3610
S'horizon'
p3611
asS'inside'
p3612
(lp3613
S'inwardly'
p3614
aS'at_heart'
p3615
asS'silently'
p3616
(lp3617
S'mutely'
p3618
asS'pebbly'
p3619
(lp3620
S'gravelly'
p3621
asS'attached'
p3622
(lp3623
S'attach'
p3624
aS'bind'
p3625
aS'impound'
p3626
aS'affiliated'
p3627
asS'seat'
p3628
(lp3629
S'buttocks'
p3630
aS'induct'
p3631
asS'parking'
p3632
(lp3633
S'park'
p3634
asS'sport'
p3635
(lp3636
S'mutant'
p3637
aS'fun'
p3638
aS'frolic'
p3639
asS'smiling'
p3640
(lp3641
S'smile'
p3642
aS'beamish'
p3643
asS'camping'
p3644
(lp3645
S'camp'
p3646
asS'tackling'
p3647
(lp3648
S'undertake'
p3649
aS'harness'
p3650
aS'tackle'
p3651
asS'outside'
p3652
(lp3653
S'external'
p3654
aS'outdoor'
p3655
aS'away'
p3656
asS'teens'
p3657
(lp3658
S'adolescent'
p3659
asS'reading'
p3660
(lp3661
S'interpretation'
p3662
aS'recitation'
p3663
aS'read'
p3664
aS'take'
p3665
aS'learn'
p3666
aS'understand'
p3667
asS'jumper'
p3668
(lp3669
S'sweater'
p3670
asS'checkered'
p3671
(lp3672
S'check'
p3673
aS'checker'
p3674
aS'checked'
p3675
asS'vertical'
p3676
(lp3677
S'upright'
p3678
aS'erect'
p3679
asS'screen'
p3680
(lp3681
S'blind'
p3682
aS'filmdom'
p3683
aS'sieve'
p3684
aS'screen_door'
p3685
aS'riddle'
p3686
aS'shield'
p3687
asS'policewomen'
p3688
(lp3689
S'police_matron'
p3690
asS'concentrated'
p3691
(lp3692
S'concentrate'
p3693
aS'centralize'
p3694
aS'digest'
p3695
aS'condense'
p3696
aS'boil_down'
p3697
aS'reduce'
p3698
aS'hard'
p3699
aS'saturated'
p3700
asS'quiet'
p3701
(lp3702
S'lull'
p3703
aS'tranquillity'
p3704
aS'silence'
p3705
aS'repose'
p3706
aS'quieten'
p3707
aS'calm'
p3708
aS'hushed'
p3709
aS'placid'
p3710
aS'quietly'
p3711
asS'multicolor'
p3712
(lp3713
S'motley'
p3714
asS'loudly'
p3715
(lp3716
S'obstreperously'
p3717
aS'forte'
p3718
asS'roof'
p3719
(lp3720
S'ceiling'
p3721
asS'color'
p3722
(lp3723
S'semblance'
p3724
aS'coloring_material'
p3725
aS'tinge'
p3726
aS'discolor'
p3727
asS'pot'
p3728
(lp3729
S'toilet'
p3730
aS'batch'
p3731
aS'potentiometer'
p3732
asS'jeans'
p3733
(lp3734
S'jean'
p3735
aS'denim'
p3736
asS'twin'
p3737
(lp3738
S'gemini'
p3739
aS'counterpart'
p3740
aS'match'
p3741
aS'duplicate'
p3742
asS'stroking'
p3743
(lp3744
S'stroke'
p3745
asS'boat'
p3746
(lp3747
S'gravy_boat'
p3748
asS'arts'
p3749
(lp3750
S'humanistic_discipline'
p3751
aS'art'
p3752
aS'artwork'
p3753
asS'peaceful'
p3754
(lp3755
S'passive'
p3756
asS'staring'
p3757
(lp3758
S'gaze'
p3759
aS'stare'
p3760
aS'star'
p3761
aS'agaze'
p3762
aS'arrant'
p3763
asS'direction'
p3764
(lp3765
S'guidance'
p3766
aS'management'
p3767
aS'steering'
p3768
aS'commission'
p3769
aS'focus'
p3770
asS'shopping'
p3771
(lp3772
S'shop'
p3773
aS'patronize'
p3774
aS'denounce'
p3775
asS'language'
p3776
(lp3777
S'speech'
p3778
aS'lyric'
p3779
aS'linguistic_process'
p3780
aS'terminology'
p3781
asS'masonry'
p3782
(lp3783
S'freemasonry'
p3784
asS'sound'
p3785
(lp3786
S'audio'
p3787
aS'phone'
p3788
aS'strait'
p3789
aS'voice'
p3790
aS'fathom'
p3791
aS'healthy'
p3792
aS'good'
p3793
aS'reasoned'
p3794
aS'legal'
p3795
aS'heavy'
p3796
asS'trick'
p3797
(lp3798
S'antic'
p3799
aS'magic_trick'
p3800
aS'whoremaster'
p3801
aS'flim-flam'
p3802
asS'cast'
p3803
(lp3804
S'mold'
p3805
aS'form'
p3806
aS'casting'
p3807
aS'hurl'
p3808
aS'project'
p3809
aS'roll'
p3810
aS'shed'
p3811
aS'draw'
p3812
aS'frame'
p3813
aS'vomit'
p3814
asS'squeezed'
p3815
(lp3816
S'squash'
p3817
aS'squeeze'
p3818
aS'wedge'
p3819
aS'coerce'
p3820
aS'extort'
p3821
aS'thrust'
p3822
aS'pinch'
p3823
aS'embrace'
p3824
aS'compress'
p3825
asS'investigating'
p3826
(lp3827
S'investigation'
p3828
aS'investigate'
p3829
asS'mound'
p3830
(lp3831
S'knoll'
p3832
aS'pile'
p3833
aS'pitcher'
p3834
asS'spotlight'
p3835
(lp3836
S'limelight'
p3837
aS'foreground'
p3838
asS'vest'
p3839
(lp3840
S'singlet'
p3841
aS'invest'
p3842
asS'rubbing'
p3843
(lp3844
S'friction'
p3845
aS'rub'
p3846
asS'purse'
p3847
(lp3848
S'bag'
p3849
asS'telephone'
p3850
(lp3851
S'call'
p3852
asS'sleeping'
p3853
(lp3854
S'quiescence'
p3855
aS'sleep'
p3856
aS'dormant'
p3857
asS'cluster'
p3858
(lp3859
S'bunch'
p3860
asS'dangerously'
p3861
(lp3862
S'perilously'
p3863
asS'heels'
p3864
(lp3865
S'heel'
p3866
aS'cad'
p3867
aS'list'
p3868
asS'ship'
p3869
(lp3870
S'transport'
p3871
aS'embark'
p3872
asS'different'
p3873
(lp3874
S'unlike'
p3875
asS'doctor'
p3876
(lp3877
S'doctor_of_the_church'
p3878
aS'sophisticate'
p3879
aS'repair'
p3880
asS'granted'
p3881
(lp3882
S'allow'
p3883
aS'award'
p3884
aS'concede'
p3885
aS'accord'
p3886
aS'grant'
p3887
aS'given'
p3888
asS'bowl'
p3889
(lp3890
S'stadium'
p3891
aS'bowling_ball'
p3892
aS'roll'
p3893
asS'same'
p3894
(lp3895
S'lapp'
p3896
aS'like'
p3897
asS'speech'
p3898
(lp3899
S'address'
p3900
aS'manner_of_speaking'
p3901
aS'lecture'
p3902
aS"actor's_line"
p3903
aS'language'
p3904
asS'Jockeys'
p3905
(lp3906
S'jockey'
p3907
aS'cheat'
p3908
asS'oil'
p3909
(lp3910
S'petroleum'
p3911
aS'vegetable_oil'
p3912
aS'anoint'
p3913
asS'barefoot'
p3914
(lp3915
S'barefooted'
p3916
asS'driven'
p3917
(lp3918
S'drive'
p3919
aS'force'
p3920
aS'repel'
p3921
aS'tug'
p3922
aS'compulsive'
p3923
asS'persons'
p3924
(lp3925
S'person'
p3926
asS'running'
p3927
(lp3928
S'run'
p3929
aS'track'
p3930
aS'scat'
p3931
aS'operate'
p3932
aS'function'
p3933
aS'range'
p3934
aS'campaign'
p3935
aS'play'
p3936
aS'tend'
p3937
aS'prevail'
p3938
aS'carry'
p3939
aS'guide'
p3940
aS'ply'
p3941
aS'hunt'
p3942
aS'race'
p3943
aS'move'
p3944
aS'melt'
p3945
aS'ladder'
p3946
aS'linear'
p3947
asS'fruit'
p3948
(lp3949
S'yield'
p3950
asS'climbing'
p3951
(lp3952
S'climb'
p3953
aS'wax'
p3954
aS'rise'
p3955
asS'slicing'
p3956
(lp3957
S'slice'
p3958
aS'slit'
p3959
asS'ruffling'
p3960
(lp3961
S'ripple'
p3962
aS'ruffle'
p3963
aS'tittup'
p3964
aS'flick'
p3965
aS'shuffle'
p3966
asS'floor'
p3967
(lp3968
S'shock'
p3969
aS'deck'
p3970
asS'walls'
p3971
(lp3972
S'wall'
p3973
aS'rampart'
p3974
asS'pacing'
p3975
(lp3976
S'tempo'
p3977
aS'pace'
p3978
asS'model'
p3979
(lp3980
S'exemplar'
p3981
aS'mannequin'
p3982
aS'exemplary'
p3983
asS'Pink'
p3984
(lp3985
S'pink'
p3986
aS'pinko'
p3987
aS'tap'
p3988
asS'being'
p3989
(lp3990
S'organism'
p3991
aS'be'
p3992
aS'exist'
p3993
aS'equal'
p3994
aS'constitute'
p3995
aS'embody'
p3996
aS'cost'
p3997
asS'guided'
p3998
(lp3999
S'steer'
p4000
aS'lead'
p4001
aS'guide'
p4002
asS'rest'
p4003
(lp4004
S'remainder'
p4005
aS'respite'
p4006
aS'lie'
p4007
aS'stay'
p4008
aS'perch'
p4009
aS'pillow'
p4010
asS'tools'
p4011
(lp4012
S'tool'
p4013
aS'instrument'
p4014
aS'creature'
p4015
aS'cock'
p4016
aS'joyride'
p4017
asS'dueling'
p4018
(lp4019
S'duel'
p4020
asS'blow'
p4021
(lp4022
S'reverse'
p4023
aS'shock'
p4024
aS'gust'
p4025
aS'coke'
p4026
aS'float'
p4027
aS'botch'
p4028
aS'waste'
p4029
aS'fellate'
p4030
aS'shove_off'
p4031
aS'boast'
p4032
aS'blow_out'
p4033
asS'staging'
p4034
(lp4035
S'theatrical_production'
p4036
aS'scaffolding'
p4037
aS'stage'
p4038
aS'stag'
p4039
aS'denounce'
p4040
aS'spy'
p4041
asS'thinking'
p4042
(lp4043
S'think'
p4044
aS'remember'
p4045
aS'intend'
p4046
aS'intelligent'
p4047
asS'rose'
p4048
(lp4049
S'blush_wine'
p4050
aS'rise'
p4051
aS'arise'
p4052
aS'surface'
p4053
aS'originate'
p4054
aS'ascend'
p4055
aS'wax'
p4056
aS'heighten'
p4057
aS'get_up'
p4058
aS'rebel'
p4059
aS'resurrect'
p4060
asS'instrument'
p4061
(lp4062
S'legal_document'
p4063
aS'instrumental_role'
p4064
aS'musical_instrument'
p4065
asS'pile'
p4066
(lp4067
S'batch'
p4068
aS'down'
p4069
aS'voltaic_pile'
p4070
aS'atomic_pile'
p4071
aS'stack'
p4072
aS'throng'
p4073
asS'grating'
p4074
(lp4075
S'grate'
p4076
aS'diffraction_grating'
p4077
aS'eat_into'
p4078
aS'scrape'
p4079
asS'joyful'
p4080
(lp4081
S'elated'
p4082
asS'swim'
p4083
(lp4084
S'swimming'
p4085
aS'float'
p4086
asS'around'
p4087
(lp4088
S'about'
p4089
aS'approximately'
p4090
aS'round'
p4091
asS'read'
p4092
(lp4093
S'take'
p4094
aS'learn'
p4095
aS'understand'
p4096
asS'Many'
p4097
(lp4098
S'many'
p4099
asS'dark'
p4100
(lp4101
S'iniquity'
p4102
aS'darkness'
p4103
aS'night'
p4104
aS'black'
p4105
aS'benighted'
p4106
aS'blue'
p4107
aS'colored'
p4108
asS'traffic'
p4109
(lp4110
S'dealings'
p4111
asS'listening'
p4112
(lp4113
S'listen'
p4114
aS'heed'
p4115
asS'world'
p4116
(lp4117
S'universe'
p4118
aS'earth'
p4119
aS'populace'
p4120
aS'worldly_concern'
p4121
aS'global'
p4122
asS'aiming'
p4123
(lp4124
S'aim'
p4125
aS'drive'
p4126
aS'calculate'
p4127
aS'target'
p4128
aS'draw_a_bead_on'
p4129
asS'lady'
p4130
(lp4131
S'dame'
p4132
asS'rear'
p4133
(lp4134
S'back'
p4135
aS'buttocks'
p4136
aS'rise'
p4137
aS'raise'
p4138
asS'rocky'
p4139
(lp4140
S'rough'
p4141
asS'barbells'
p4142
(lp4143
S'barbell'
p4144
asS'vending'
p4145
(lp4146
S'peddle'
p4147
asS'shoeless'
p4148
(lp4149
S'barefoot'
p4150
asS'pole'
p4151
(lp4152
S'perch'
p4153
aS'terminal'
p4154
aS'punt'
p4155
asS'facing'
p4156
(lp4157
S'lining'
p4158
aS'confront'
p4159
aS'front'
p4160
aS'face'
p4161
asS'audience'
p4162
(lp4163
S'hearing'
p4164
aS'consultation'
p4165
asS'donations'
p4166
(lp4167
S'contribution'
p4168
asS'laughing'
p4169
(lp4170
S'laugh'
p4171
asS'tower'
p4172
(lp4173
S'column'
p4174
aS'tugboat'
p4175
aS'loom'
p4176
asS'grouping'
p4177
(lp4178
S'group'
p4179
asS'Eyeshadow'
p4180
(lp4181
S'eyeshadow'
p4182
asS'doll'
p4183
(lp4184
S'dame'
p4185
asS'competition'
p4186
(lp4187
S'contest'
p4188
aS'rival'
p4189
asS'cowboys'
p4190
(lp4191
S'cowboy'
p4192
asS'pasture'
p4193
(lp4194
S'eatage'
p4195
aS'crop'
p4196
asS'dyeing'
p4197
(lp4198
S'dye'
p4199
asS'slice'
p4200
(lp4201
S'piece'
p4202
aS'cut'
p4203
aS'slit'
p4204
asS'tube'
p4205
(lp4206
S'pipe'
p4207
aS'metro'
p4208
asS'Men'
p4209
(lp4210
S'work_force'
p4211
aS'man'
p4212
aS'serviceman'
p4213
aS'homo'
p4214
aS'valet'
p4215
aS'world'
p4216
asS'pigtails'
p4217
(lp4218
S'pigtail'
p4219
asS'squirt'
p4220
(lp4221
S'pip-squeak'
p4222
aS'jet'
p4223
asS'quitting'
p4224
(lp4225
S'discontinue'
p4226
aS'leave_office'
p4227
aS'depart'
p4228
aS'foreswear'
p4229
aS'drop_out'
p4230
asS'knife'
p4231
(lp4232
S'tongue'
p4233
asS'measuring'
p4234
(lp4235
S'measurement'
p4236
aS'measure'
p4237
aS'quantify'
p4238
asS'diced'
p4239
(lp4240
S'cube'
p4241
aS'dice'
p4242
asS'power'
p4243
(lp4244
S'ability'
p4245
aS'office'
p4246
aS'exponent'
p4247
aS'might'
p4248
aS'world_power'
p4249
aS'baron'
p4250
asS'olives'
p4251
(lp4252
S'olive'
p4253
asS'broken'
p4254
(lp4255
S'interrupt'
p4256
aS'break'
p4257
aS'transgress'
p4258
aS'break_in'
p4259
aS'violate'
p4260
aS'better'
p4261
aS'unwrap'
p4262
aS'fail'
p4263
aS'dampen'
p4264
aS'separate'
p4265
aS'demote'
p4266
aS'bankrupt'
p4267
aS'collapse'
p4268
aS'break_dance'
p4269
aS'pause'
p4270
aS'crack'
p4271
aS'fracture'
p4272
asS'incline'
p4273
(lp4274
S'slope'
p4275
aS'ramp'
p4276
aS'tend'
p4277
aS'dispose'
p4278
asS'dices'
p4279
(lp4280
S'die'
p4281
aS'cube'
p4282
aS'dice'
p4283
asS'drums'
p4284
(lp4285
S'drum'
p4286
aS'barrel'
p4287
aS'brake_drum'
p4288
aS'cram'
p4289
asS'exciting'
p4290
(lp4291
S'excite'
p4292
aS'stimulate'
p4293
aS'agitate'
p4294
aS'arouse'
p4295
asS'on'
p4296
(lp4297
S'along'
p4298
asS'stone'
p4299
(lp4300
S'rock'
p4301
aS'gem'
p4302
aS'pit'
p4303
asS'joyfully'
p4304
(lp4305
S'gleefully'
p4306
asS'package'
p4307
(lp4308
S'software'
p4309
aS'box'
p4310
asS'drag'
p4311
(lp4312
S'puff'
p4313
aS'haul'
p4314
aS'embroil'
p4315
aS'scuff'
p4316
aS'dredge'
p4317
asS'mixer'
p4318
(lp4319
S'sociable'
p4320
asS'shrimp'
p4321
(lp4322
S'runt'
p4323
aS'prawn'
p4324
asS'Paper'
p4325
(lp4326
S'paper'
p4327
aS'composition'
p4328
aS'newspaper'
p4329
aS'wallpaper'
p4330
asS'mixed'
p4331
(lp4332
S'blend'
p4333
aS'desegregate'
p4334
aS'mix'
p4335
aS'shuffle'
p4336
aS'assorted'
p4337
aS'interracial'
p4338
asS'or'
p4339
(lp4340
S'oregon'
p4341
aS'operating_room'
p4342
asS'freeing'
p4343
(lp4344
S'liberation'
p4345
aS'free'
p4346
aS'rid'
p4347
aS'dislodge'
p4348
aS'exempt'
p4349
aS'absolve'
p4350
aS'release'
p4351
aS'unblock'
p4352
asS'ladies'
p4353
(lp4354
S'lady'
p4355
aS'dame'
p4356
asS'burning'
p4357
(lp4358
S'burn'
p4359
aS'combustion'
p4360
aS'electrocution'
p4361
aS'bite'
p4362
aS'cauterize'
p4363
aS'sunburn'
p4364
aS'cut'
p4365
aS'burn_off'
p4366
asS'No'
p4367
(lp4368
S'no'
p4369
aS'nobelium'
p4370
asS'instruments'
p4371
(lp4372
S'instrument'
p4373
aS'legal_document'
p4374
aS'instrumental_role'
p4375
aS'musical_instrument'
p4376
asS'spreading'
p4377
(lp4378
S'spread'
p4379
aS'dissemination'
p4380
aS'unfold'
p4381
aS'circulate'
p4382
aS'go_around'
p4383
aS'diffuse'
p4384
asS'calmly'
p4385
(lp4386
S'sedately'
p4387
asS'rising'
p4388
(lp4389
S'rise'
p4390
aS'rebellion'
p4391
aS'arise'
p4392
aS'surface'
p4393
aS'originate'
p4394
aS'ascend'
p4395
aS'wax'
p4396
aS'heighten'
p4397
aS'get_up'
p4398
aS'rebel'
p4399
aS'resurrect'
p4400
aS'acclivitous'
p4401
aS'emerging'
p4402
asS'homeless'
p4403
(lp4404
S'dispossessed'
p4405
asS'strip'
p4406
(lp4407
S'airstrip'
p4408
aS'comic_strip'
p4409
aS'deprive'
p4410
aS'undress'
p4411
aS'leach'
p4412
aS'denude'
p4413
aS'plunder'
p4414
aS'clean'
p4415
asS'skillet'
p4416
(lp4417
S'frying_pan'
p4418
asS'logs'
p4419
(lp4420
S'log'
p4421
aS'logarithm'
p4422
asS'racquet'
p4423
(lp4424
S'racket'
p4425
asS'log'
p4426
(lp4427
S'logarithm'
p4428
asS'area'
p4429
(lp4430
S'sphere'
p4431
asS'removing'
p4432
(lp4433
S'remove'
p4434
aS'get_rid_of'
p4435
aS'take_out'
p4436
aS'absent'
p4437
aS'murder'
p4438
asS'styling'
p4439
(lp4440
S'style'
p4441
asS'lounging'
p4442
(lp4443
S'lounge'
p4444
aS'loiter'
p4445
asS'cats'
p4446
(lp4447
S'cat'
p4448
aS'guy'
p4449
aS'kat'
p4450
aS"cat-o'-nine-tails"
p4451
aS'caterpillar'
p4452
aS'big_cat'
p4453
aS'computerized_tomography'
p4454
aS'vomit'
p4455
asS'low'
p4456
(lp4457
S'first_gear'
p4458
aS'moo'
p4459
aS'abject'
p4460
aS'humble'
p4461
aS'depleted'
p4462
aS'broken'
p4463
aS'gloomy'
p4464
asS'lot'
p4465
(lp4466
S'batch'
p4467
aS'set'
p4468
aS'fortune'
p4469
aS'draw'
p4470
aS'bunch'
p4471
aS'distribute'
p4472
asS'pinwheel'
p4473
(lp4474
S'catherine_wheel'
p4475
asS'bubble'
p4476
(lp4477
S'house_of_cards'
p4478
aS'ripple'
p4479
aS'burp'
p4480
asS'kittens'
p4481
(lp4482
S'kitten'
p4483
asS'Small'
p4484
(lp4485
S'small'
p4486
aS'minor'
p4487
aS'little'
p4488
aS'humble'
p4489
aS'modest'
p4490
aS'belittled'
p4491
asS'mice'
p4492
(lp4493
S'mouse'
p4494
aS'shiner'
p4495
asS'trying'
p4496
(lp4497
S'try'
p4498
aS'test'
p4499
aS'judge'
p4500
aS'sample'
p4501
aS'hear'
p4502
aS'try_on'
p4503
aS'nerve-racking'
p4504
asS'buying'
p4505
(lp4506
S'buy'
p4507
aS'bribe'
p4508
asS'applying'
p4509
(lp4510
S'use'
p4511
aS'apply'
p4512
aS'put_on'
p4513
aS'lend_oneself'
p4514
aS'give'
p4515
aS'practice'
p4516
aS'enforce'
p4517
asS'tambourines'
p4518
(lp4519
S'tambourine'
p4520
asS'rags'
p4521
(lp4522
S'rag'
p4523
aS'ragtime'
p4524
aS'tabloid'
p4525
aS'torment'
p4526
aS'annoy'
p4527
aS'tease'
p4528
aS'call_on_the_carpet'
p4529
asS'dirty'
p4530
(lp4531
S'cheating'
p4532
asS'grass'
p4533
(lp4534
S'supergrass'
p4535
aS'eatage'
p4536
aS'pot'
p4537
aS'denounce'
p4538
asS'strongly'
p4539
(lp4540
S'powerfully'
p4541
asS'videos'
p4542
(lp4543
S'video'
p4544
aS'video_recording'
p4545
aS'television'
p4546
asS'deep'
p4547
(lp4548
S'trench'
p4549
aS'bass'
p4550
aS'thick'
p4551
aS'cryptic'
p4552
aS'abstruse'
p4553
aS'deeply'
p4554
asS'an'
p4555
(lp4556
S'associate_in_nursing'
p4557
asS'as'
p4558
(lp4559
S'arsenic'
p4560
aS'american_samoa'
p4561
aS'angstrom'
p4562
aS'vitamin_a'
p4563
aS'deoxyadenosine_monophosphate'
p4564
aS'adenine'
p4565
aS'ampere'
p4566
aS'a'
p4567
aS'equally'
p4568
asS'at'
p4569
(lp4570
S'astatine'
p4571
asS'walks'
p4572
(lp4573
S'walk'
p4574
aS'base_on_balls'
p4575
aS'walk_of_life'
p4576
asS'watched'
p4577
(lp4578
S'watch'
p4579
aS'determine'
p4580
asS'rubber'
p4581
(lp4582
S'rubber_eraser'
p4583
aS'condom'
p4584
aS'arctic'
p4585
aS'rubberize'
p4586
asS'field'
p4587
(lp4588
S'battlefield'
p4589
aS'discipline'
p4590
aS'sphere'
p4591
aS'playing_field'
p4592
aS'plain'
p4593
aS'airfield'
p4594
asS'poor'
p4595
(lp4596
S'poor_people'
p4597
aS'hapless'
p4598
aS'inadequate'
p4599
asS'students'
p4600
(lp4601
S'student'
p4602
aS'scholar'
p4603
asS'waving'
p4604
(lp4605
S'wave'
p4606
aS'beckon'
p4607
aS'brandish'
p4608
aS'roll'
p4609
aS'curl'
p4610
asS'herbs'
p4611
(lp4612
S'herb'
p4613
asS'podium'
p4614
(lp4615
S'dais'
p4616
asS'bullets'
p4617
(lp4618
S'bullet'
p4619
aS'bullet_train'
p4620
aS'fastball'
p4621
asS'suited'
p4622
(lp4623
S'suit'
p4624
aS'befit'
p4625
aS'become'
p4626
aS'suitable'
p4627
asS'tackle'
p4628
(lp4629
S'rigging'
p4630
aS'fishing_gear'
p4631
aS'undertake'
p4632
aS'harness'
p4633
asS'dunked'
p4634
(lp4635
S'dunk'
p4636
asS'pool'
p4637
(lp4638
S'pond'
p4639
aS'consortium'
p4640
asS'building'
p4641
(lp4642
S'construction'
p4643
aS'construct'
p4644
aS'build_up'
p4645
aS'build'
p4646
asS'motorcycle'
p4647
(lp4648
S'motorbike'
p4649
asS'tricks'
p4650
(lp4651
S'trick'
p4652
aS'antic'
p4653
aS'magic_trick'
p4654
aS'whoremaster'
p4655
aS'flim-flam'
p4656
asS'groom'
p4657
(lp4658
S'stableman'
p4659
aS'prepare'
p4660
aS'dress'
p4661
asS'mask'
p4662
(lp4663
S'masquerade'
p4664
aS'dissemble'
p4665
aS'disguise'
p4666
asS'dyed'
p4667
(lp4668
S'dye'
p4669
aS'bleached'
p4670
asS'rescues'
p4671
(lp4672
S'rescue'
p4673
asS'sawing'
p4674
(lp4675
S'saw'
p4676
asS'apparel'
p4677
(lp4678
S'dress'
p4679
asS'starting'
p4680
(lp4681
S'start'
p4682
aS'get_down'
p4683
aS'begin'
p4684
aS'depart'
p4685
aS'originate'
p4686
aS'startle'
p4687
asS'all'
p4688
(lp4689
S'wholly'
p4690
asS'pointing'
p4691
(lp4692
S'indicate'
p4693
aS'orient'
p4694
aS'charge'
p4695
aS'steer'
p4696
aS'bespeak'
p4697
aS'luff'
p4698
aS'point'
p4699
aS'target'
p4700
aS'sharpen'
p4701
asS'dish'
p4702
(lp4703
S'smasher'
p4704
aS'cup_of_tea'
p4705
aS'serve'
p4706
asS'sung'
p4707
(lp4708
S'sing'
p4709
aS'whistle'
p4710
aS'spill_the_beans'
p4711
asS'carpet'
p4712
(lp4713
S'rug'
p4714
asS'number'
p4715
(lp4716
S'act'
p4717
aS'phone_number'
p4718
aS'numeral'
p4719
aS'issue'
p4720
aS'total'
p4721
aS'count'
p4722
asS'hunting'
p4723
(lp4724
S'hunt'
p4725
aS'search'
p4726
aS'hound'
p4727
asS'lining'
p4728
(lp4729
S'liner'
p4730
aS'line'
p4731
aS'trace'
p4732
asS'tail'
p4733
(lp4734
S'fag_end'
p4735
aS'buttocks'
p4736
aS'stern'
p4737
aS'chase'
p4738
aS'dock'
p4739
asS'shredding'
p4740
(lp4741
S'shred'
p4742
asS'enjoying'
p4743
(lp4744
S'enjoy'
p4745
aS'love'
p4746
aS'delight'
p4747
asS'presentation'
p4748
(lp4749
S'display'
p4750
asS'case'
p4751
(lp4752
S'event'
p4753
aS'lawsuit'
p4754
aS'subject'
p4755
aS'character'
p4756
aS'font'
p4757
aS'sheath'
p4758
aS'shell'
p4759
aS'casing'
p4760
aS'encase'
p4761
asS'woman'
p4762
(lp4763
S'charwoman'
p4764
aS'womanhood'
p4765
asS'sitting'
p4766
(lp4767
S'seance'
p4768
aS'sit'
p4769
aS'sit_down'
p4770
aS'model'
p4771
aS'ride'
p4772
aS'baby-sit'
p4773
aS'seat'
p4774
aS'seated'
p4775
asS'very'
p4776
(lp4777
S'identical'
p4778
asS'hitting'
p4779
(lp4780
S'hit'
p4781
aS'reach'
p4782
aS'shoot'
p4783
aS'stumble'
p4784
aS'score'
p4785
aS'strike'
p4786
aS'murder'
p4787
asS'fan'
p4788
(lp4789
S'sports_fan'
p4790
aS'winnow'
p4791
asS'Motorbikes'
p4792
(lp4793
S'minibike'
p4794
aS'motorbike'
p4795
asS'washing'
p4796
(lp4797
S'wash'
p4798
aS'laundry'
p4799
aS'moisten'
p4800
aS'lave'
p4801
asS'mothers'
p4802
(lp4803
S'mother'
p4804
aS'beget'
p4805
asS'laying'
p4806
(lp4807
S'put'
p4808
aS'lay'
p4809
asS'large'
p4810
(lp4811
S'bombastic'
p4812
aS'big'
p4813
aS'boastfully'
p4814
asS'fearful'
p4815
(lp4816
S'awful'
p4817
aS'cowardly'
p4818
asS'sand'
p4819
(lp4820
S'backbone'
p4821
aS'sandpaper'
p4822
asS'small'
p4823
(lp4824
S'minor'
p4825
aS'little'
p4826
aS'humble'
p4827
aS'modest'
p4828
aS'belittled'
p4829
asS'fence'
p4830
(lp4831
S'wall'
p4832
aS'argue'
p4833
asS'past'
p4834
(lp4835
S'by'
p4836
asS'casual'
p4837
(lp4838
S'fooling'
p4839
aS'free-and-easy'
p4840
asS'ribbon'
p4841
(lp4842
S'decoration'
p4843
asS'handicapped'
p4844
(lp4845
S'disabled'
p4846
aS'disable'
p4847
aS'handicap'
p4848
asS'sun'
p4849
(lp4850
S'sunlight'
p4851
aS'sunday'
p4852
asS'racing'
p4853
(lp4854
S'rush'
p4855
aS'race'
p4856
asS'guns'
p4857
(lp4858
S'gun'
p4859
aS'artillery'
p4860
aS'gunman'
p4861
aS'grease-gun'
p4862
aS'accelerator'
p4863
asS'revealing'
p4864
(lp4865
S'disclosure'
p4866
aS'uncover'
p4867
aS'unwrap'
p4868
aS'reveal'
p4869
asS'tattoos'
p4870
(lp4871
S'tattoo'
p4872
asS'full'
p4873
(lp4874
S'full_moon'
p4875
aS'wax'
p4876
aS'entire'
p4877
aS'broad'
p4878
aS'wide'
p4879
aS'fully'
p4880
asS'escaping'
p4881
(lp4882
S'escape'
p4883
aS'miss'
p4884
aS'get_off'
p4885
aS'elude'
p4886
aS'scat'
p4887
asS'recruits'
p4888
(lp4889
S'recruit'
p4890
aS'enroll'
p4891
asS'leaping'
p4892
(lp4893
S'leap'
p4894
aS'jump'
p4895
asS'sprayed'
p4896
(lp4897
S'spray'
p4898
asS'wild'
p4899
(lp4900
S'wilderness'
p4901
aS'violent'
p4902
aS'baseless'
p4903
aS'raving_mad'
p4904
aS'hazardous'
p4905
aS'fantastic'
p4906
aS'godforsaken'
p4907
aS'crazy'
p4908
aS'barbarian'
p4909
aS'angry'
p4910
aS'rampantly'
p4911
asS'operating'
p4912
(lp4913
S'operate'
p4914
aS'function'
p4915
aS'manoeuver'
p4916
aS'engage'
p4917
aS'operate_on'
p4918
aS'operational'
p4919
asS'trunk'
p4920
(lp4921
S'torso'
p4922
aS'luggage_compartment'
p4923
aS'proboscis'
p4924
asS'directions'
p4925
(lp4926
S'direction'
p4927
aS'guidance'
p4928
aS'management'
p4929
aS'steering'
p4930
aS'commission'
p4931
aS'focus'
p4932
asS'strong'
p4933
(lp4934
S'potent'
p4935
aS'impregnable'
p4936
aS'solid'
p4937
aS'hard'
p4938
aS'firm'
p4939
asS'rollerbladers'
p4940
(lp4941
S'rollerblader'
p4942
asS'Chopped'
p4943
(lp4944
S'chop'
p4945
aS'chopped'
p4946
asS'colored'
p4947
(lp4948
S'colored_person'
p4949
aS'color'
p4950
aS'tinge'
p4951
aS'discolor'
p4952
aS'biased'
p4953
aS'bleached'
p4954
asS'Mimes'
p4955
(lp4956
S'mime'
p4957
aS'mimic'
p4958
asS'stretching'
p4959
(lp4960
S'stretch'
p4961
aS'unfold'
p4962
aS'elongate'
p4963
aS'load'
p4964
aS'extend'
p4965
asS'cucumbers'
p4966
(lp4967
S'cucumber'
p4968
asS'social'
p4969
(lp4970
S'sociable'
p4971
asS'sticking'
p4972
(lp4973
S'lodge'
p4974
aS'stay'
p4975
aS'adhere'
p4976
aS'stick'
p4977
aS'stand_by'
p4978
aS'cling'
p4979
aS'perplex'
p4980
aS'jutting'
p4981
asS'followed'
p4982
(lp4983
S'follow'
p4984
aS'postdate'
p4985
aS'comply'
p4986
aS'adopt'
p4987
aS'take_after'
p4988
aS'trace'
p4989
aS'watch'
p4990
aS'succeed'
p4991
aS'play_along'
p4992
aS'keep_up'
p4993
aS'come'
p4994
aS'be'
p4995
aS'surveil'
p4996
aS'pursue'
p4997
aS'stick_to'
p4998
asS'family'
p4999
(lp5000
S'class'
p5001
aS'kin'
p5002
aS'syndicate'
p5003
asS'strolling'
p5004
(lp5005
S'stroll'
p5006
asS'indoors'
p5007
(lp5008
S'inside'
p5009
asS'toys'
p5010
(lp5011
S'plaything'
p5012
aS'toy'
p5013
aS'miniature'
p5014
aS'toy_dog'
p5015
aS'dally'
p5016
aS'play'
p5017
asS'eye'
p5018
(lp5019
S'center'
p5020
asS'Skewers'
p5021
(lp5022
S'skewer'
p5023
asS'contains'
p5024
(lp5025
S'incorporate'
p5026
aS'hold'
p5027
aS'control'
p5028
aS'contain'
p5029
aS'check'
p5030
asS'two'
p5031
(lp5032
S'deuce'
p5033
asS'splash'
p5034
(lp5035
S'stir'
p5036
aS'dab'
p5037
aS'spatter'
p5038
aS'sprinkle'
p5039
aS'squelch'
p5040
asS'taken'
p5041
(lp5042
S'take'
p5043
aS'lead'
p5044
aS'assume'
p5045
aS'bring'
p5046
aS'choose'
p5047
aS'accept'
p5048
aS'fill'
p5049
aS'consider'
p5050
aS'necessitate'
p5051
aS'film'
p5052
aS'remove'
p5053
aS'consume'
p5054
aS'learn'
p5055
aS'claim'
p5056
aS'aim'
p5057
aS'carry'
p5058
aS'lease'
p5059
aS'subscribe'
p5060
aS'contain'
p5061
aS'drive'
p5062
aS'contract'
p5063
aS'interpreted'
p5064
asS'raft'
p5065
(lp5066
S'batch'
p5067
asS'dunks'
p5068
(lp5069
S'dunk'
p5070
asS'Butter'
p5071
(lp5072
S'butter'
p5073
asS'lowering'
p5074
(lp5075
S'lower'
p5076
aS'turn_down'
p5077
aS'frown'
p5078
aS'heavy'
p5079
asS'door'
p5080
(lp5081
S'doorway'
p5082
asS'grabbing'
p5083
(lp5084
S'catch'
p5085
aS'snap_up'
p5086
aS'grab'
p5087
asS'flag'
p5088
(lp5089
S'masthead'
p5090
aS'iris'
p5091
aS'pin'
p5092
aS'sag'
p5093
aS'ease_up'
p5094
asS'stick'
p5095
(lp5096
S'pin'
p5097
aS'joint'
p5098
aS'lodge'
p5099
aS'stay'
p5100
aS'adhere'
p5101
aS'stand_by'
p5102
aS'cling'
p5103
aS'perplex'
p5104
asS'mowed'
p5105
(lp5106
S'mow'
p5107
aS'pout'
p5108
asS'town'
p5109
(lp5110
S'township'
p5111
asS'keeping'
p5112
(lp5113
S'guardianship'
p5114
aS'retention'
p5115
aS'keep'
p5116
aS'continue'
p5117
aS'prevent'
p5118
aS'observe'
p5119
aS'retain'
p5120
aS'sustain'
p5121
aS'restrain'
p5122
aS'keep_open'
p5123
aS'preserve'
p5124
asS'gravel'
p5125
(lp5126
S'annoy'
p5127
aS'perplex'
p5128
asS'middle'
p5129
(lp5130
S'center'
p5131
aS'in-between'
p5132
asS'launch'
p5133
(lp5134
S'launching'
p5135
aS'establish'
p5136
aS'plunge'
p5137
asS'knocked'
p5138
(lp5139
S'knock'
p5140
aS'bump'
p5141
aS'tap'
p5142
aS'pink'
p5143
asS'Different'
p5144
(lp5145
S'different'
p5146
aS'unlike'
p5147
asS'pony'
p5148
(lp5149
S'shot_glass'
p5150
asS'pushed'
p5151
(lp5152
S'push'
p5153
aS'advertise'
p5154
aS'tug'
p5155
aS'crusade'
p5156
aS'press'
p5157
asS'fiercely'
p5158
(lp5159
S'ferociously'
p5160
asS'numbers'
p5161
(lp5162
S'numbers_pool'
p5163
aS'number'
p5164
aS'act'
p5165
aS'phone_number'
p5166
aS'numeral'
p5167
aS'issue'
p5168
aS'total'
p5169
aS'count'
p5170
asS'pong'
p5171
(lp5172
S'niff'
p5173
asS'dress'
p5174
(lp5175
S'attire'
p5176
aS'apparel'
p5177
aS'preen'
p5178
aS'trim'
p5179
aS'snip'
p5180
aS'full-dress'
p5181
asS'goal'
p5182
(lp5183
S'finish'
p5184
asS'breaking'
p5185
(lp5186
S'breakage'
p5187
aS'interrupt'
p5188
aS'break'
p5189
aS'transgress'
p5190
aS'break_in'
p5191
aS'violate'
p5192
aS'better'
p5193
aS'unwrap'
p5194
aS'fail'
p5195
aS'dampen'
p5196
aS'separate'
p5197
aS'demote'
p5198
aS'bankrupt'
p5199
aS'collapse'
p5200
aS'break_dance'
p5201
aS'pause'
p5202
aS'crack'
p5203
aS'fracture'
p5204
asS'cleansing'
p5205
(lp5206
S'cleaning'
p5207
aS'cleanse'
p5208
aS'ablutionary'
p5209
asS'speeding'
p5210
(lp5211
S'speed'
p5212
aS'rush'
p5213
aS'accelerate'
p5214
aS'travel_rapidly'
p5215
asS'plant'
p5216
(lp5217
S'implant'
p5218
aS'establish'
p5219
asS'communicating'
p5220
(lp5221
S'communication'
p5222
aS'communicate'
p5223
aS'convey'
p5224
aS'commune'
p5225
asS'plane'
p5226
(lp5227
S'airplane'
p5228
aS'flat'
p5229
asS'malnourished'
p5230
(lp5231
S'undernourish'
p5232
asS'coming'
p5233
(lp5234
S'approach'
p5235
aS'advent'
p5236
aS'orgasm'
p5237
aS'come'
p5238
aS'arrive'
p5239
aS'issue_forth'
p5240
aS'hail'
p5241
aS'fall'
p5242
aS'total'
p5243
aS'occur'
p5244
aS'derive'
p5245
aS'do'
p5246
aS'approaching'
p5247
asS'a'
p5248
(lp5249
S'angstrom'
p5250
aS'vitamin_a'
p5251
aS'deoxyadenosine_monophosphate'
p5252
aS'adenine'
p5253
aS'ampere'
p5254
asS'short'
p5255
(lp5256
S'short_circuit'
p5257
aS'shortstop'
p5258
aS'short-change'
p5259
aS'short-circuit'
p5260
aS'inadequate'
p5261
aS'unretentive'
p5262
aS'light'
p5263
aS'brusque'
p5264
aS'abruptly'
p5265
aS'curtly'
p5266
asS'crowded'
p5267
(lp5268
S'herd'
p5269
aS'crowd'
p5270
aS'push'
p5271
asS'coat'
p5272
(lp5273
S'coating'
p5274
asS'shore'
p5275
(lp5276
S'land'
p5277
aS'prop_up'
p5278
asS'Dough'
p5279
(lp5280
S'dough'
p5281
aS'boodle'
p5282
asS'scaring'
p5283
(lp5284
S'frighten'
p5285
aS'daunt'
p5286
aS'scar'
p5287
asS'egg'
p5288
(lp5289
S'testis'
p5290
asS'playing'
p5291
(lp5292
S'acting'
p5293
aS'play'
p5294
aS'act'
p5295
aS'toy'
p5296
aS'dally'
p5297
aS'bring'
p5298
aS'bet'
p5299
aS'meet'
p5300
asS'infant'
p5301
(lp5302
S'baby'
p5303
asS'held'
p5304
(lp5305
S'keep'
p5306
aS'hold'
p5307
aS'have'
p5308
aS'deem'
p5309
aS'harbor'
p5310
aS'restrain'
p5311
aS'retain'
p5312
aS'bear'
p5313
aS'accommodate'
p5314
aS'prevail'
p5315
aS'contain'
p5316
aS'reserve'
p5317
aS'defend'
p5318
aS'oblige'
p5319
aS'defy'
p5320
aS'apply'
p5321
aS'control'
p5322
aS'halt'
p5323
aS'carry'
p5324
aS'declare'
p5325
aS'agree'
p5326
asS'paper'
p5327
(lp5328
S'composition'
p5329
aS'newspaper'
p5330
aS'wallpaper'
p5331
asS'through'
p5332
(lp5333
S'done'
p5334
asS'its'
p5335
(lp5336
S'information_technology'
p5337
asS'rapidly'
p5338
(lp5339
S'quickly'
p5340
asS'carpeted'
p5341
(lp5342
S'carpet'
p5343
asS'travelling'
p5344
(lp5345
S'travel'
p5346
asS'someone'
p5347
(lp5348
S'person'
p5349
asS'seeking'
p5350
(lp5351
S'quest'
p5352
aS'seek'
p5353
aS'search'
p5354
aS'try'
p5355
asS'males'
p5356
(lp5357
S'male'
p5358
asS'petted'
p5359
(lp5360
S'pet'
p5361
asS'feet'
p5362
(lp5363
S'foot'
p5364
aS'animal_foot'
p5365
aS'foundation'
p5366
aS'infantry'
p5367
aS'metrical_foot'
p5368
asS'fully'
p5369
(lp5370
S'amply'
p5371
aS'in_full'
p5372
asS'kayaking'
p5373
(lp5374
S'kayak'
p5375
asS'stopped'
p5376
(lp5377
S'stop'
p5378
aS'discontinue'
p5379
aS'break'
p5380
aS'check'
p5381
aS'intercept'
p5382
aS'end'
p5383
aS'barricade'
p5384
aS'hold_on'
p5385
asS'snowboarders'
p5386
(lp5387
S'snowboarder'
p5388
asS'hammering'
p5389
(lp5390
S'hammer'
p5391
aS'forge'
p5392
asS'house'
p5393
(lp5394
S'firm'
p5395
aS'sign_of_the_zodiac'
p5396
aS'family'
p5397
aS'theater'
p5398
asS'fish'
p5399
(lp5400
S'pisces'
p5401
asS'hard'
p5402
(lp5403
S'difficult'
p5404
aS'arduous'
p5405
aS'unvoiced'
p5406
aS'intemperate'
p5407
aS'heavily'
p5408
asS'Mud'
p5409
(lp5410
S'mud'
p5411
aS'mire'
p5412
asS'extended'
p5413
(lp5414
S'widen'
p5415
aS'run'
p5416
aS'cover'
p5417
aS'extend'
p5418
aS'exsert'
p5419
aS'offer'
p5420
aS'stretch'
p5421
aS'prolong'
p5422
aS'unfold'
p5423
aS'gallop'
p5424
aS'strain'
p5425
aS'carry'
p5426
aS'drawn-out'
p5427
aS'elongated'
p5428
aS'extensive'
p5429
asS'scratching'
p5430
(lp5431
S'scrape'
p5432
aS'rub'
p5433
aS'scratch'
p5434
aS'cancel'
p5435
aS'strike'
p5436
asS'event'
p5437
(lp5438
S'consequence'
p5439
asS'harp'
p5440
(lp5441
S'harmonica'
p5442
asS'silky'
p5443
(lp5444
S'satiny'
p5445
asS'flower'
p5446
(lp5447
S'bloom'
p5448
asS'gnawing'
p5449
(lp5450
S'gnaw'
p5451
aS'erode'
p5452
asS'badger'
p5453
(lp5454
S'wisconsinite'
p5455
aS'tease'
p5456
asS'surrounded'
p5457
(lp5458
S'surround'
p5459
aS'smother'
p5460
aS'besiege'
p5461
aS'wall'
p5462
asS'acting'
p5463
(lp5464
S'act'
p5465
aS'work'
p5466
aS'dissemble'
p5467
asS'safety'
p5468
(lp5469
S'guard'
p5470
aS'base_hit'
p5471
aS'condom'
p5472
asS'hill'
p5473
(lp5474
S'mound'
p5475
asS'flyaway'
p5476
(lp5477
S'flighty'
p5478
asS'drink'
p5479
(lp5480
S'beverage'
p5481
aS'swallow'
p5482
aS'toast'
p5483
aS'drink_in'
p5484
asS'dirt'
p5485
(lp5486
S'soil'
p5487
aS'crap'
p5488
aS'scandal'
p5489
asS'combed'
p5490
(lp5491
S'comb'
p5492
asS'difficulty'
p5493
(lp5494
S'trouble'
p5495
asS'base'
p5496
(lp5497
S'foundation'
p5498
aS'floor'
p5499
aS'basis'
p5500
aS'nucleotide'
p5501
aS'al-qaeda'
p5502
aS'root'
p5503
aS'infrastructure'
p5504
aS'establish'
p5505
aS'free-base'
p5506
aS'basal'
p5507
asS'put'
p5508
(lp5509
S'put_option'
p5510
aS'frame'
p5511
aS'invest'
p5512
aS'place'
p5513
aS'arrange'
p5514
asS'guy'
p5515
(lp5516
S'ridicule'
p5517
asS'thrown'
p5518
(lp5519
S'throw'
p5520
aS'shed'
p5521
aS'give'
p5522
aS'project'
p5523
aS'bewilder'
p5524
aS'hurl'
p5525
aS'hold'
p5526
aS'confuse'
p5527
asS'cheers'
p5528
(lp5529
S'cheer'
p5530
aS'cheerfulness'
p5531
asS'jet'
p5532
(lp5533
S'k'
p5534
aS'fountain'
p5535
aS'coal-black'
p5536
asS'People'
p5537
(lp5538
S'people'
p5539
aS'citizenry'
p5540
aS'multitude'
p5541
asS'rollerblades'
p5542
(lp5543
S'rollerblade'
p5544
asS'cheering'
p5545
(lp5546
S'cheer'
p5547
aS'comforting'
p5548
asS'scouts'
p5549
(lp5550
S'lookout'
p5551
aS'scout'
p5552
asS'snowboarding'
p5553
(lp5554
S'snowboard'
p5555
asS'fallen'
p5556
(lp5557
S'fall'
p5558
aS'descend'
p5559
aS'precipitate'
p5560
aS'decrease'
p5561
aS'accrue'
p5562
aS'hang'
p5563
asS'advertisement'
p5564
(lp5565
S'ad'
p5566
asS'perching'
p5567
(lp5568
S'perch'
p5569
aS'alight'
p5570
asS'knocking'
p5571
(lp5572
S'knock'
p5573
aS'bump'
p5574
aS'tap'
p5575
aS'pink'
p5576
asS'reflected'
p5577
(lp5578
S'reflect'
p5579
aS'chew_over'
p5580
asS'fancy'
p5581
(lp5582
S'illusion'
p5583
aS'fondness'
p5584
aS'visualize'
p5585
asS'slipper'
p5586
(lp5587
S'skidder'
p5588
asS'Indian'
p5589
(lp5590
S'indian'
p5591
aS'amerind'
p5592
asS'done'
p5593
(lp5594
S'make'
p5595
aS'perform'
p5596
aS'do'
p5597
aS'cause'
p5598
aS'practice'
p5599
aS'suffice'
p5600
aS'act'
p5601
aS'serve'
p5602
aS'dress'
p5603
asS'horse'
p5604
(lp5605
S'cavalry'
p5606
aS'sawhorse'
p5607
aS'knight'
p5608
asS'afghan'
p5609
(lp5610
S'pashto'
p5611
aS'sheepskin_coat'
p5612
aS'afghan_hound'
p5613
aS'afghani'
p5614
asS'heads'
p5615
(lp5616
S'head'
p5617
aS'mind'
p5618
aS'fountainhead'
p5619
aS'capitulum'
p5620
aS'principal'
p5621
aS'promontory'
p5622
aS'forefront'
p5623
aS'pass'
p5624
aS'headway'
p5625
aS'point'
p5626
aS'question'
p5627
aS'heading'
p5628
aS'read/write_head'
p5629
aS'drumhead'
p5630
aS'oral_sex'
p5631
aS'lead'
p5632
aS'steer'
p5633
asS'automobile'
p5634
(lp5635
S'car'
p5636
asS'paint'
p5637
(lp5638
S'key'
p5639
aS'rouge'
p5640
asS'leash'
p5641
(lp5642
S'three'
p5643
aS'collar'
p5644
aS'rope'
p5645
asS'arguing'
p5646
(lp5647
S'controversy'
p5648
aS'argue'
p5649
asS'store'
p5650
(lp5651
S'shop'
p5652
aS'memory'
p5653
aS'storehouse'
p5654
asS'selling'
p5655
(lp5656
S'sell'
p5657
aS'deal'
p5658
aS'betray'
p5659
asS'fasting'
p5660
(lp5661
S'fast'
p5662
asS'park'
p5663
(lp5664
S'ballpark'
p5665
aS'parking_lot'
p5666
asS'part'
p5667
(lp5668
S'region'
p5669
aS'function'
p5670
aS'character'
p5671
aS'share'
p5672
aS'contribution'
p5673
aS'separate'
p5674
aS'depart'
p5675
aS'partially'
p5676
asS'rifle'
p5677
(lp5678
S'plunder'
p5679
asS'stairs'
p5680
(lp5681
S'step'
p5682
asS'grey'
p5683
(lp5684
S'gray'
p5685
asS'bride'
p5686
(lp5687
S'bridget'
p5688
asS'harping'
p5689
(lp5690
S'harp'
p5691
asS'dismantling'
p5692
(lp5693
S'level'
p5694
aS'disassemble'
p5695
aS'strip'
p5696
asS'outdoors'
p5697
(lp5698
S'outside'
p5699
asS'elaborate'
p5700
(lp5701
S'complicate'
p5702
aS'detailed'
p5703
asS'refrigerating'
p5704
(lp5705
S'refrigerate'
p5706
aS'refrigerant'
p5707
asS'tongues'
p5708
(lp5709
S'tongue'
p5710
aS'natural_language'
p5711
aS'spit'
p5712
aS'clapper'
p5713
asS'cleaner'
p5714
(lp5715
S'cleansing_agent'
p5716
aS'clean'
p5717
aS'uninfected'
p5718
aS'blank'
p5719
asS'uniforms'
p5720
(lp5721
S'uniform'
p5722
asS'alongside'
p5723
(lp5724
S'aboard'
p5725
asS'It'
p5726
(lp5727
S'information_technology'
p5728
asS'guarding'
p5729
(lp5730
S'guard'
p5731
aS'defend'
p5732
asS'graffiti'
p5733
(lp5734
S'graffito'
p5735
asS'cleaned'
p5736
(lp5737
S'clean'
p5738
aS'houseclean'
p5739
aS'cleanse'
p5740
aS'scavenge'
p5741
asS'aged'
p5742
(lp5743
S'age'
p5744
aS'senesce'
p5745
asS'mountain'
p5746
(lp5747
S'batch'
p5748
asS'built'
p5749
(lp5750
S'construct'
p5751
aS'build_up'
p5752
aS'build'
p5753
asS'dancing'
p5754
(lp5755
S'dance'
p5756
asS'camouflage'
p5757
(lp5758
S'disguise'
p5759
asS'couch'
p5760
(lp5761
S'sofa'
p5762
aS'frame'
p5763
asS'lit'
p5764
(lp5765
S'literature'
p5766
aS'light'
p5767
aS'light_up'
p5768
aS'alight'
p5769
aS'ignite'
p5770
aS'fall'
p5771
aS'unhorse'
p5772
aS'illuminated'
p5773
aS'lighted'
p5774
asS'hurling'
p5775
(lp5776
S'hurl'
p5777
aS'lunge'
p5778
asS'play'
p5779
(lp5780
S'maneuver'
p5781
aS'bid'
p5782
aS'playing_period'
p5783
aS'free_rein'
p5784
aS'shimmer'
p5785
aS'fun'
p5786
aS'looseness'
p5787
aS'turn'
p5788
aS'gambling'
p5789
aS'act'
p5790
aS'toy'
p5791
aS'dally'
p5792
aS'bring'
p5793
aS'bet'
p5794
aS'meet'
p5795
asS'added'
p5796
(lp5797
S'add'
p5798
aS'lend'
p5799
aS'total'
p5800
asS'eggs'
p5801
(lp5802
S'egg'
p5803
aS'testis'
p5804
asS'eaten'
p5805
(lp5806
S'eat'
p5807
aS'feed'
p5808
aS'consume'
p5809
aS'corrode'
p5810
asS'kiddies'
p5811
(lp5812
S'kiddy'
p5813
asS'patterned'
p5814
(lp5815
S'model'
p5816
aS'pattern'
p5817
asS'windows'
p5818
(lp5819
S'window'
p5820
aS'windowpane'
p5821
asS'clear'
p5822
(lp5823
S'open'
p5824
aS'unclutter'
p5825
aS'clear_up'
p5826
aS'authorize'
p5827
aS'pass'
p5828
aS'net'
p5829
aS'gain'
p5830
aS'acquit'
p5831
aS'clean'
p5832
aS'well-defined'
p5833
aS'absolved'
p5834
aS'clearly'
p5835
asS'snapping'
p5836
(lp5837
S'snap'
p5838
aS'tear'
p5839
aS'snatch'
p5840
aS'break_down'
p5841
aS'photograph'
p5842
asS'cramped'
p5843
(lp5844
S'cramp'
p5845
aS'hamper'
p5846
asS'clean'
p5847
(lp5848
S'clean_and_jerk'
p5849
aS'houseclean'
p5850
aS'cleanse'
p5851
aS'scavenge'
p5852
aS'uninfected'
p5853
aS'blank'
p5854
aS'fairly'
p5855
asS'barren'
p5856
(lp5857
S'bare'
p5858
asS'attacking'
p5859
(lp5860
S'attack'
p5861
aS'assail'
p5862
aS'assaultive'
p5863
asS'lying'
p5864
(lp5865
S'lie'
p5866
aS'dwell'
p5867
aS'lie_down'
p5868
asS'lumping'
p5869
(lp5870
S'lump'
p5871
aS'collocate'
p5872
asS'gold'
p5873
(lp5874
S'amber'
p5875
aS'aureate'
p5876
asS'doctors'
p5877
(lp5878
S'doctor'
p5879
aS'doctor_of_the_church'
p5880
aS'sophisticate'
p5881
aS'repair'
p5882
asS'hugging'
p5883
(lp5884
S'caressing'
p5885
aS'embrace'
p5886
aS'hug'
p5887
asS'perched'
p5888
(lp5889
S'perch'
p5890
aS'alight'
p5891
asS'ringers'
p5892
(lp5893
S'toller'
p5894
aS'ringer'
p5895
asS'font'
p5896
(lp5897
S'baptismal_font'
p5898
asS'Dirt'
p5899
(lp5900
S'soil'
p5901
aS'dirt'
p5902
aS'crap'
p5903
aS'scandal'
p5904
asS'scooter'
p5905
(lp5906
S'water_scooter'
p5907
aS'motor_scooter'
p5908
aS'iceboat'
p5909
aS'scoter'
p5910
asS'Makeup'
p5911
(lp5912
S'makeup'
p5913
aS'constitution'
p5914
asS'poodles'
p5915
(lp5916
S'poodle'
p5917
asS'poles'
p5918
(lp5919
S'pole'
p5920
aS'perch'
p5921
aS'terminal'
p5922
aS'punt'
p5923
asS'circle'
p5924
(lp5925
S'set'
p5926
aS'lap'
p5927
aS'traffic_circle'
p5928
aS'r-2'
p5929
aS'encircle'
p5930
asS'columns'
p5931
(lp5932
S'column'
p5933
asS'hit'
p5934
(lp5935
S'collision'
p5936
aS'reach'
p5937
aS'shoot'
p5938
aS'stumble'
p5939
aS'score'
p5940
aS'strike'
p5941
aS'murder'
p5942
asS'distance'
p5943
(lp5944
S'outdistance'
p5945
asS'bend'
p5946
(lp5947
S'bending'
p5948
aS'fold'
p5949
aS'flex'
p5950
aS'crouch'
p5951
aS'deflect'
p5952
asS'sunny'
p5953
(lp5954
S'cheery'
p5955
asS'trees'
p5956
(lp5957
S'tree'
p5958
aS'corner'
p5959
asS'toddlers'
p5960
(lp5961
S'toddler'
p5962
asS'famous'
p5963
(lp5964
S'celebrated'
p5965
asS'batter'
p5966
(lp5967
S'buffet'
p5968
aS'clobber'
p5969
aS'dinge'
p5970
asS'preparing'
p5971
(lp5972
S'fix'
p5973
aS'cook'
p5974
aS'prepare'
p5975
aS'organize'
p5976
aS'train'
p5977
asS'closely'
p5978
(lp5979
S'close'
p5980
asS'frightening'
p5981
(lp5982
S'terrorization'
p5983
aS'frighten'
p5984
aS'awful'
p5985
asS'paddling'
p5986
(lp5987
S'paddle'
p5988
aS'dabble'
p5989
aS'toddle'
p5990
aS'spank'
p5991
asS'gloves'
p5992
(lp5993
S'baseball_glove'
p5994
aS'glove'
p5995
aS'boxing_glove'
p5996
asS'filled'
p5997
(lp5998
S'fill'
p5999
aS'occupy'
p6000
aS'meet'
p6001
aS'fill_up'
p6002
aS'satiate'
p6003
asS'activity'
p6004
(lp6005
S'action'
p6006
aS'bodily_process'
p6007
aS'natural_process'
p6008
aS'activeness'
p6009
asS'severing'
p6010
(lp6011
S'severance'
p6012
aS'sever'
p6013
aS'discerp'
p6014
asS'approaching'
p6015
(lp6016
S'approach'
p6017
aS'border_on'
p6018
aS'set_about'
p6019
asS'bars'
p6020
(lp6021
S'parallel_bars'
p6022
aS'barroom'
p6023
aS'bar'
p6024
aS'measure'
p6025
aS'prevention'
p6026
aS'legal_profession'
p6027
aS'stripe'
p6028
aS'cake'
p6029
aS'browning_automatic_rifle'
p6030
aS'barricade'
p6031
aS'banish'
p6032
asS'set'
p6033
(lp6034
S'stage_set'
p6035
aS'bent'
p6036
aS'hardening'
p6037
aS'put'
p6038
aS'determine'
p6039
aS'specify'
p6040
aS'fix'
p6041
aS'arrange'
p6042
aS'plant'
p6043
aS'jell'
p6044
aS'typeset'
p6045
aS'sic'
p6046
aS'place'
p6047
aS'rig'
p6048
aS'set_up'
p6049
aS'adjust'
p6050
aS'fructify'
p6051
aS'dress'
p6052
aS'fit'
p6053
aS'fixed'
p6054
aS'located'
p6055
aS'laid'
p6056
aS'determined'
p6057
aS'hardened'
p6058
asS'stump'
p6059
(lp6060
S'dais'
p6061
aS'stomp'
p6062
asS'throwing'
p6063
(lp6064
S'throw'
p6065
aS'shed'
p6066
aS'give'
p6067
aS'project'
p6068
aS'bewilder'
p6069
aS'hurl'
p6070
aS'hold'
p6071
aS'confuse'
p6072
asS'carrying'
p6073
(lp6074
S'transport'
p6075
aS'carry'
p6076
aS'impart'
p6077
aS'hold'
p6078
aS'behave'
p6079
aS'stock'
p6080
aS'dribble'
p6081
aS'post'
p6082
aS'have_a_bun_in_the_oven'
p6083
asS'lion'
p6084
(lp6085
S'leo'
p6086
asS'bare'
p6087
(lp6088
S'publicize'
p6089
aS'denude'
p6090
aS'unsheathed'
p6091
aS'plain'
p6092
asS'are'
p6093
(lp6094
S'be'
p6095
aS'exist'
p6096
aS'equal'
p6097
aS'constitute'
p6098
aS'embody'
p6099
aS'cost'
p6100
asS'sea'
p6101
(lp6102
S'ocean'
p6103
asS'close'
p6104
(lp6105
S'stopping_point'
p6106
aS'conclusion'
p6107
aS'finale'
p6108
aS'close_up'
p6109
aS'conclude'
p6110
aS'near'
p6111
aS'airless'
p6112
aS'cheeseparing'
p6113
asS'arm'
p6114
(lp6115
S'weapon'
p6116
aS'branch'
p6117
aS'sleeve'
p6118
asS'knees'
p6119
(lp6120
S'knee'
p6121
aS'stifle'
p6122
asS'muted'
p6123
(lp6124
S'muffle'
p6125
aS'hushed'
p6126
aS'dull'
p6127
asS'guinea'
p6128
(lp6129
S'wop'
p6130
aS'guinea_fowl'
p6131
asS'kneeling'
p6132
(lp6133
S'kneel'
p6134
asS'various'
p6135
(lp6136
S'assorted'
p6137
aS'respective'
p6138
aS'diverse'
p6139
aS'versatile'
p6140
asS'probably'
p6141
(lp6142
S'credibly'
p6143
asS'burned'
p6144
(lp6145
S'burn'
p6146
aS'bite'
p6147
aS'cauterize'
p6148
aS'sunburn'
p6149
aS'cut'
p6150
aS'burn_off'
p6151
asS'peeled'
p6152
(lp6153
S'skin'
p6154
aS'peel_off'
p6155
aS'undress'
p6156
aS'bare-assed'
p6157
asS'missing'
p6158
(lp6159
S'miss'
p6160
aS'neglect'
p6161
aS'lacking'
p6162
asS'targeted'
p6163
(lp6164
S'target'
p6165
asS'sold'
p6166
(lp6167
S'sell'
p6168
aS'deal'
p6169
aS'betray'
p6170
asS'outfit'
p6171
(lp6172
S'kit'
p6173
aS'equip'
p6174
asS'spray'
p6175
(lp6176
S'atomizer'
p6177
asS'Weights'
p6178
(lp6179
S'weight'
p6180
aS'system_of_weights'
p6181
aS'weight_unit'
p6182
aS'burden'
p6183
aS'slant'
p6184
asS'African'
p6185
(lp6186
S'african'
p6187
asS'folding'
p6188
(lp6189
S'protein_folding'
p6190
aS'fold'
p6191
aS'close_up'
p6192
aS'pen_up'
p6193
aS'foldable'
p6194
asS'Fish'
p6195
(lp6196
S'fish'
p6197
aS'pisces'
p6198
asS'sparring'
p6199
(lp6200
S'spar'
p6201
asS'whole'
p6202
(lp6203
S'unharmed'
p6204
aS'hale'
p6205
aS'solid'
p6206
aS'wholly'
p6207
asS'healing'
p6208
(lp6209
S'mend'
p6210
aS'heal'
p6211
aS'bring_around'
p6212
aS'curative'
p6213
asS'flies'
p6214
(lp6215
S'fly'
p6216
aS'tent-fly'
p6217
aS'flee'
p6218
aS'vanish'
p6219
asS'drunk'
p6220
(lp6221
S'drunkard'
p6222
aS'drink'
p6223
aS'toast'
p6224
aS'drink_in'
p6225
aS'intoxicated'
p6226
asS'smashing'
p6227
(lp6228
S'smash'
p6229
aS'bankrupt'
p6230
aS'crush'
p6231
aS'bang_up'
p6232
aS'bang-up'
p6233
asS'spotting'
p6234
(lp6235
S'staining'
p6236
aS'detection'
p6237
aS'descry'
p6238
aS'spot'
p6239
aS'blemish'
p6240
asS'climbers'
p6241
(lp6242
S'climber'
p6243
aS'social_climber'
p6244
aS'mounter'
p6245
aS'crampon'
p6246
asS'church'
p6247
(lp6248
S'church_service'
p6249
asS'crocodiles'
p6250
(lp6251
S'crocodile'
p6252
asS'devouring'
p6253
(lp6254
S'devour'
p6255
aS'avid'
p6256
asS'Guitar'
p6257
(lp6258
S'guitar'
p6259
asS'dropping'
p6260
(lp6261
S'drop'
p6262
aS'sink'
p6263
aS'fell'
p6264
aS'spend'
p6265
aS'flatten'
p6266
aS'dangle'
p6267
aS'dismiss'
p6268
aS'dribble'
p6269
aS'shed'
p6270
aS'neglect'
p6271
aS'devolve'
p6272
asS'extravagant'
p6273
(lp6274
S'excessive'
p6275
asS'make-up'
p6276
(lp6277
S'makeup'
p6278
aS'constitution'
p6279
asS'peppers'
p6280
(lp6281
S'pepper'
p6282
aS'capsicum'
p6283
asS'empty'
p6284
(lp6285
S'vacate'
p6286
aS'evacuate'
p6287
asS'Women'
p6288
(lp6289
S'woman'
p6290
aS'charwoman'
p6291
aS'womanhood'
p6292
asS'resting'
p6293
(lp6294
S'rest'
p6295
aS'lie'
p6296
aS'stay'
p6297
aS'perch'
p6298
aS'pillow'
p6299
asS'flight'
p6300
(lp6301
S'escape'
p6302
aS'trajectory'
p6303
aS'fledge'
p6304
asS'fire'
p6305
(lp6306
S'ardor'
p6307
aS'open_fire'
p6308
aS'displace'
p6309
aS'arouse'
p6310
aS'burn'
p6311
aS'fuel'
p6312
asS'hind'
p6313
(lp6314
S'back'
p6315
asS'races'
p6316
(lp6317
S'race'
p6318
aS'subspecies'
p6319
aS'slipstream'
p6320
aS'raceway'
p6321
aS'rush'
p6322
asS'sleeves'
p6323
(lp6324
S'sleeve'
p6325
asS'rocking'
p6326
(lp6327
S'rock'
p6328
asS'wheeled'
p6329
(lp6330
S'wheel'
p6331
aS'bicycle'
p6332
asS'plants'
p6333
(lp6334
S'plant'
p6335
aS'implant'
p6336
aS'establish'
p6337
asS'handling'
p6338
(lp6339
S'treatment'
p6340
aS'manage'
p6341
aS'treat'
p6342
aS'cover'
p6343
aS'handle'
p6344
aS'wield'
p6345
asS'look'
p6346
(lp6347
S'expression'
p6348
aS'spirit'
p6349
aS'search'
p6350
aS'front'
p6351
aS'attend'
p6352
aS'expect'
p6353
aS'count'
p6354
asS'caged'
p6355
(lp6356
S'cage'
p6357
asS'Carrots'
p6358
(lp6359
S'carrot'
p6360
asS'rope'
p6361
(lp6362
S'r-2'
p6363
aS'lasso'
p6364
asS'healthy'
p6365
(lp6366
S'goodly'
p6367
asS'match'
p6368
(lp6369
S'catch'
p6370
aS'peer'
p6371
aS'couple'
p6372
aS'equal'
p6373
aS'meet'
p6374
aS'pit'
p6375
asS'leaning'
p6376
(lp6377
S'proclivity'
p6378
aS'tilt'
p6379
aS'lean'
p6380
aS'tend'
p6381
aS'list'
p6382
aS'atilt'
p6383
asS'fun'
p6384
(lp6385
S'playfulness'
p6386
asS'kissing'
p6387
(lp6388
S'caressing'
p6389
aS'snog'
p6390
aS'kiss'
p6391
asS'animated'
p6392
(lp6393
S'inspire'
p6394
aS'animize'
p6395
aS'enliven'
p6396
aS'animate'
p6397
asS'moustache'
p6398
(lp6399
S'mustache'
p6400
asS'guide'
p6401
(lp6402
S'usher'
p6403
aS'guidebook'
p6404
aS'template'
p6405
aS'scout'
p6406
aS'steer'
p6407
aS'lead'
p6408
asS'pack'
p6409
(lp6410
S'battalion'
p6411
aS'gang'
p6412
aS'clique'
p6413
aS'carry'
p6414
aS'throng'
p6415
aS'backpack'
p6416
aS'tamp_down'
p6417
aS'compact'
p6418
asS'ducks'
p6419
(lp6420
S'duck'
p6421
aS'dip'
p6422
aS'hedge'
p6423
asS'awakening'
p6424
(lp6425
S'awaken'
p6426
aS'wake_up'
p6427
asS'shunning'
p6428
(lp6429
S'avoidance'
p6430
aS'shun'
p6431
aS'banish'
p6432
asS'funny'
p6433
(lp6434
S'funny_story'
p6435
aS'amusing'
p6436
aS'curious'
p6437
aS'fishy'
p6438
asS'parading'
p6439
(lp6440
S'parade'
p6441
asS'fetching'
p6442
(lp6443
S'bring'
p6444
aS'fetch'
p6445
asS'grand'
p6446
(lp6447
S'thousand'
p6448
aS'grand_piano'
p6449
aS'expansive'
p6450
aS'august'
p6451
aS'deluxe'
p6452
aS'fantastic'
p6453
aS'exalted'
p6454
aS'distinguished'
p6455
asS'daughters'
p6456
(lp6457
S'daughter'
p6458
asS'used'
p6459
(lp6460
S'use'
p6461
aS'practice'
p6462
aS'exploited'
p6463
aS'secondhand'
p6464
asS'gallery'
p6465
(lp6466
S'veranda'
p6467
aS'drift'
p6468
asS'cement'
p6469
(lp6470
S'cementum'
p6471
asS'leapt'
p6472
(lp6473
S'jump'
p6474
aS'leap'
p6475
asS'cleaning'
p6476
(lp6477
S'clean'
p6478
aS'houseclean'
p6479
aS'cleanse'
p6480
aS'scavenge'
p6481
asS'stack'
p6482
(lp6483
S'batch'
p6484
aS'push-down_list'
p6485
aS'smokestack'
p6486
aS'push-down_storage'
p6487
asS'idling'
p6488
(lp6489
S'idleness'
p6490
aS'idle'
p6491
asS'motionless'
p6492
(lp6493
S'inactive'
p6494
asS'older'
p6495
(lp6496
S'aged'
p6497
aS'elder'
p6498
aS'old'
p6499
aS'erstwhile'
p6500
aS'honest-to-god'
p6501
aS'previous'
p6502
asS'laden'
p6503
(lp6504
S'ladle'
p6505
aS'load'
p6506
asS'edge'
p6507
(lp6508
S'boundary'
p6509
aS'border'
p6510
asS'shrewdly'
p6511
(lp6512
S'astutely'
p6513
asS'using'
p6514
(lp6515
S'exploitation'
p6516
aS'use'
p6517
aS'practice'
p6518
asS'praying'
p6519
(lp6520
S'pray'
p6521
aS'beg'
p6522
asS'jumpsuit'
p6523
(lp6524
S'jump_suit'
p6525
asS'tables'
p6526
(lp6527
S'table'
p6528
aS'mesa'
p6529
aS'board'
p6530
aS'postpone'
p6531
asS'loading'
p6532
(lp6533
S'load'
p6534
aS'cargo'
p6535
asS'blankets'
p6536
(lp6537
S'blanket'
p6538
asS'workers'
p6539
(lp6540
S'worker'
p6541
aS'proletarian'
p6542
aS'actor'
p6543
asS'Football'
p6544
(lp6545
S'football'
p6546
asS'kissed'
p6547
(lp6548
S'snog'
p6549
aS'kiss'
p6550
asS'exercising'
p6551
(lp6552
S'exercise'
p6553
aS'exert'
p6554
aS'practice'
p6555
aS'drill'
p6556
asS'speedily'
p6557
(lp6558
S'quickly'
p6559
asS'shouting'
p6560
(lp6561
S'cheering'
p6562
aS'yelling'
p6563
aS'shout'
p6564
aS'exclaim'
p6565
aS'abuse'
p6566
asS'crying'
p6567
(lp6568
S'cry'
p6569
aS'war_cry'
p6570
aS'shout'
p6571
aS'exclaim'
p6572
aS'clamant'
p6573
asS'snap'
p6574
(lp6575
S'catch'
p6576
aS'snap_bean'
p6577
aS'gingersnap'
p6578
aS'crack'
p6579
aS'elasticity'
p6580
aS'snapshot'
p6581
aS'cinch'
p6582
aS'centering'
p6583
aS'tear'
p6584
aS'snatch'
p6585
aS'break_down'
p6586
aS'photograph'
p6587
asS'surprised'
p6588
(lp6589
S'surprise'
p6590
aS'storm'
p6591
asS'bin'
p6592
(lp6593
S'bank_identification_number'
p6594
asS'customers'
p6595
(lp6596
S'customer'
p6597
asS'big'
p6598
(lp6599
S'large'
p6600
aS'bad'
p6601
aS'boastful'
p6602
aS'adult'
p6603
aS'boastfully'
p6604
asS'couple'
p6605
(lp6606
S'match'
p6607
aS'pair'
p6608
aS'copulate'
p6609
asS'bib'
p6610
(lp6611
S'tipple'
p6612
asS'tiring'
p6613
(lp6614
S'tire'
p6615
aS'run_down'
p6616
aS'bore'
p6617
aS'exhausting'
p6618
asS'enthusiastically'
p6619
(lp6620
S'sky-high'
p6621
asS'suffering'
p6622
(lp6623
S'agony'
p6624
aS'distress'
p6625
aS'suffer'
p6626
aS'digest'
p6627
aS'hurt'
p6628
aS'miserable'
p6629
asS'bit'
p6630
(lp6631
S'spot'
p6632
aS'moment'
p6633
aS'piece'
p6634
aS'morsel'
p6635
aS'snatch'
p6636
aS'act'
p6637
aS'bite'
p6638
aS'sting'
p6639
asS'sharpened'
p6640
(lp6641
S'sharpen'
p6642
aS'focus'
p6643
asS'wings'
p6644
(lp6645
S'wing'
p6646
aS'flank'
p6647
aS'fender'
p6648
aS'annex'
p6649
aS'fly'
p6650
asS'uphill'
p6651
(lp6652
S'acclivitous'
p6653
asS'glove'
p6654
(lp6655
S'baseball_glove'
p6656
aS'boxing_glove'
p6657
asS'amalgamating'
p6658
(lp6659
S'mix'
p6660
asS'OR'
p6661
(lp6662
S'oregon'
p6663
aS'operating_room'
p6664
asS'Little'
p6665
(lp6666
S'little'
p6667
aS'small'
p6668
aS'fiddling'
p6669
aS'short'
p6670
asS'duck'
p6671
(lp6672
S'dip'
p6673
aS'hedge'
p6674
asS'some'
p6675
(lp6676
S'approximately'
p6677
asS'back'
p6678
(lp6679
S'rear'
p6680
aS'spinal_column'
p6681
aS'binding'
p6682
aS'second'
p6683
aS'bet_on'
p6684
asS'martial'
p6685
(lp6686
S'soldierly'
p6687
aS'warlike'
p6688
asS'palm'
p6689
(lp6690
S'decoration'
p6691
aS'handle'
p6692
asS'saucer'
p6693
(lp6694
S'disk'
p6695
aS'dish'
p6696
aS'discus'
p6697
asS'pet'
p6698
(lp6699
S'darling'
p6700
aS'positron_emission_tomography'
p6701
aS'favored'
p6702
asS'spouting'
p6703
(lp6704
S'spurt'
p6705
aS'rant'
p6706
aS'jetting'
p6707
asS'competitions'
p6708
(lp6709
S'competition'
p6710
aS'contest'
p6711
aS'rival'
p6712
asS'pen'
p6713
(lp6714
S'playpen'
p6715
aS'penitentiary'
p6716
aS'write'
p6717
asS'nose'
p6718
(lp6719
S'nozzle'
p6720
aS'intrude'
p6721
aS'scent'
p6722
aS'nuzzle'
p6723
asS'be'
p6724
(lp6725
S'beryllium'
p6726
aS'exist'
p6727
aS'equal'
p6728
aS'constitute'
p6729
aS'embody'
p6730
aS'cost'
p6731
asS'run'
p6732
(lp6733
S'test'
p6734
aS'footrace'
p6735
aS'streak'
p6736
aS'rivulet'
p6737
aS'political_campaign'
p6738
aS'discharge'
p6739
aS'scat'
p6740
aS'operate'
p6741
aS'function'
p6742
aS'range'
p6743
aS'campaign'
p6744
aS'play'
p6745
aS'tend'
p6746
aS'prevail'
p6747
aS'carry'
p6748
aS'guide'
p6749
aS'ply'
p6750
aS'hunt'
p6751
aS'race'
p6752
aS'move'
p6753
aS'melt'
p6754
aS'ladder'
p6755
asS'jumps'
p6756
(lp6757
S'jump'
p6758
aS'leap'
p6759
aS'startle'
p6760
aS'leap_out'
p6761
aS'rise'
p6762
aS'derail'
p6763
aS'chute'
p6764
aS'jumpstart'
p6765
aS'alternate'
p6766
asS'costumes'
p6767
(lp6768
S'costume'
p6769
asS'volleyballs'
p6770
(lp6771
S'volleyball'
p6772
asS'costumed'
p6773
(lp6774
S'costume'
p6775
asS'intense'
p6776
(lp6777
S'acute'
p6778
asS'firing'
p6779
(lp6780
S'fire'
p6781
aS'discharge'
p6782
aS'ignition'
p6783
aS'dismissal'
p6784
aS'open_fire'
p6785
aS'displace'
p6786
aS'arouse'
p6787
aS'burn'
p6788
aS'fuel'
p6789
asS'range'
p6790
(lp6791
S'scope'
p6792
aS'image'
p6793
aS'compass'
p6794
aS'stove'
p6795
aS'roll'
p6796
aS'crop'
p6797
aS'rate'
p6798
asS'shiny'
p6799
(lp6800
S'glistening'
p6801
aS'glazed'
p6802
aS'bright'
p6803
asS'block'
p6804
(lp6805
S'pulley'
p6806
aS'engine_block'
p6807
aS'blockage'
p6808
aS'auction_block'
p6809
aS'blocking'
p6810
aS'barricade'
p6811
aS'obstruct'
p6812
aS'stop'
p6813
aS'jam'
p6814
aS'stuff'
p6815
aS'parry'
p6816
aS'forget'
p6817
aS'freeze'
p6818
asS'stitched'
p6819
(lp6820
S'sew'
p6821
aS'sewed'
p6822
asS'tofu'
p6823
(lp6824
S'bean_curd'
p6825
asS'seating'
p6826
(lp6827
S'seat'
p6828
aS'induct'
p6829
asS'next'
p6830
(lp6831
S'following'
p6832
aS'adjacent'
p6833
aS'future'
p6834
asS'strumming'
p6835
(lp6836
S'strum'
p6837
asS'retrieving'
p6838
(lp6839
S'recover'
p6840
aS'retrieve'
p6841
aS'remember'
p6842
asS'measured'
p6843
(lp6844
S'measure'
p6845
aS'quantify'
p6846
aS'mensural'
p6847
aS'deliberate'
p6848
aS'careful'
p6849
asS'preservers'
p6850
(lp6851
S'refinisher'
p6852
aS'preserver'
p6853
aS'life_preserver'
p6854
asS'lone'
p6855
(lp6856
S'alone'
p6857
asS'long'
p6858
(lp6859
S'hanker'
p6860
aS'retentive'
p6861
aS'farseeing'
p6862
asS'suit'
p6863
(lp6864
S'lawsuit'
p6865
aS'courtship'
p6866
aS'befit'
p6867
aS'become'
p6868
asS'bored'
p6869
(lp6870
S'bore'
p6871
aS'blase'
p6872
asS'opponent'
p6873
(lp6874
S'opposition'
p6875
aS'adversary'
p6876
asS'mountains'
p6877
(lp6878
S'mountain'
p6879
aS'batch'
p6880
asS'Animals'
p6881
(lp6882
S'animal'
p6883
asS'skewers'
p6884
(lp6885
S'skewer'
p6886
asS'relaxed'
p6887
(lp6888
S'relax'
p6889
aS'loosen'
p6890
aS'slack'
p6891
asS'vehicle'
p6892
(lp6893
S'fomite'
p6894
asS't-shirt'
p6895
(lp6896
S'jersey'
p6897
asS'boys'
p6898
(lp6899
S'male_child'
p6900
aS'boy'
p6901
aS'son'
p6902
asS'crane'
p6903
(lp6904
S'grus'
p6905
asS'raising'
p6906
(lp6907
S'elevation'
p6908
aS'breeding'
p6909
aS'raise'
p6910
aS'grow'
p6911
aS'rear'
p6912
aS'lift'
p6913
aS'arouse'
p6914
aS'enhance'
p6915
aS'promote'
p6916
aS'recruit'
p6917
aS'resurrect'
p6918
asS'up'
p6919
(lp6920
S'astir'
p6921
aS'improving'
p6922
asS'cautiously'
p6923
(lp6924
S'conservatively'
p6925
asS'fried'
p6926
(lp6927
S'fry'
p6928
aS'electrocute'
p6929
asS'storing'
p6930
(lp6931
S'store'
p6932
asS'adults'
p6933
(lp6934
S'adult'
p6935
asS'cover'
p6936
(lp6937
S'screen'
p6938
aS'blanket'
p6939
aS'binding'
p6940
aS'covering'
p6941
aS'top'
p6942
aS'cover_charge'
p6943
aS'embrace'
p6944
aS'traverse'
p6945
aS'report'
p6946
aS'shroud'
p6947
aS'breed'
p6948
aS'overlay'
p6949
aS'brood'
p6950
asS'curb'
p6951
(lp6952
S'american_stock_exchange'
p6953
aS'bridle'
p6954
aS'control'
p6955
aS'suppress'
p6956
aS'restrict'
p6957
asS'diving'
p6958
(lp6959
S'dive'
p6960
asS'rally'
p6961
(lp6962
S'beat_up'
p6963
aS'call_up'
p6964
aS'muster'
p6965
aS'tease'
p6966
asS'denying'
p6967
(lp6968
S'deny'
p6969
aS'traverse'
p6970
asS'rainy'
p6971
(lp6972
S'showery'
p6973
asS'lemon'
p6974
(lp6975
S'gamboge'
p6976
asS'TV'
p6977
(lp6978
S'television'
p6979
aS'television_receiver'
p6980
asS'fixing'
p6981
(lp6982
S'repair'
p6983
aS'fastener'
p6984
aS'neutering'
p6985
aS'fixation'
p6986
aS'fasten'
p6987
aS'specify'
p6988
aS'cook'
p6989
aS'pay_back'
p6990
aS'fix'
p6991
aS'fixate'
p6992
aS'sterilize'
p6993
aS'situate'
p6994
asS'grouped'
p6995
(lp6996
S'group'
p6997
asS'nap'
p6998
(lp6999
S'sleep'
p7000
aS'pile'
p7001
aS'napoleon'
p7002
asS'pandas'
p7003
(lp7004
S'giant_panda'
p7005
aS'lesser_panda'
p7006
asS'brushing'
p7007
(lp7008
S'brush'
p7009
asS'spectators'
p7010
(lp7011
S'spectator'
p7012
aS'spectator_pump'
p7013
asS'calculating'
p7014
(lp7015
S'calculate'
p7016
aS'account'
p7017
aS'forecast'
p7018
aS'count'
p7019
asS'crouching'
p7020
(lp7021
S'crouch'
p7022
aS'squat'
p7023
asS'prepared'
p7024
(lp7025
S'fix'
p7026
aS'cook'
p7027
aS'prepare'
p7028
aS'organize'
p7029
aS'train'
p7030
aS'disposed'
p7031
asS'helping'
p7032
(lp7033
S'help'
p7034
aS'help_oneself'
p7035
aS'serve'
p7036
aS'avail'
p7037
asS'insect'
p7038
(lp7039
S'worm'
p7040
asS'fervently'
p7041
(lp7042
S'fierily'
p7043
asS'depicting'
p7044
(lp7045
S'picture'
p7046
aS'describe'
p7047
aS'portray'
p7048
asS'sides'
p7049
(lp7050
S'side'
p7051
aS'slope'
p7052
aS'english'
p7053
asS'structure'
p7054
(lp7055
S'social_organization'
p7056
asS'land'
p7057
(lp7058
S'domain'
p7059
aS'country'
p7060
aS'kingdom'
p7061
aS'estate'
p7062
aS'nation'
p7063
aS'state'
p7064
aS'farming'
p7065
aS'bring'
p7066
aS'down'
p7067
asS'overlooking'
p7068
(lp7069
S'overlook'
p7070
aS'look_out_on'
p7071
aS'neglect'
p7072
aS'dominate'
p7073
aS'commanding'
p7074
asS'pedestrians'
p7075
(lp7076
S'pedestrian'
p7077
asS'age'
p7078
(lp7079
S'historic_period'
p7080
aS'long_time'
p7081
aS'old_age'
p7082
aS'senesce'
p7083
asS'vehicles'
p7084
(lp7085
S'vehicle'
p7086
aS'fomite'
p7087
asS'holes'
p7088
(lp7089
S'hole'
p7090
aS'fix'
p7091
aS'trap'
p7092
asS'walked'
p7093
(lp7094
S'walk'
p7095
asS'An'
p7096
(lp7097
S'associate_in_nursing'
p7098
asS'cooked'
p7099
(lp7100
S'cook'
p7101
aS'fudge'
p7102
asS'roping'
p7103
(lp7104
S'lasso'
p7105
aS'rope'
p7106
asS'weights'
p7107
(lp7108
S'weight'
p7109
aS'system_of_weights'
p7110
aS'weight_unit'
p7111
aS'burden'
p7112
aS'slant'
p7113
asS'Asian'
p7114
(lp7115
S'asian'
p7116
asS'fresh'
p7117
(lp7118
S'bracing'
p7119
aS'clean'
p7120
aS'newly'
p7121
asS'bricks'
p7122
(lp7123
S'brick'
p7124
asS'requires'
p7125
(lp7126
S'necessitate'
p7127
aS'ask'
p7128
aS'command'
p7129
aS'want'
p7130
asS'having'
p7131
(lp7132
S'have'
p7133
aS'experience'
p7134
aS'own'
p7135
aS'get'
p7136
aS'consume'
p7137
aS'hold'
p7138
aS'induce'
p7139
aS'accept'
p7140
aS'receive'
p7141
aS'suffer'
p7142
aS'give_birth'
p7143
aS'take'
p7144
asS'lunging'
p7145
(lp7146
S'lunge'
p7147
asS'restraining'
p7148
(lp7149
S'restrain'
p7150
aS'restrict'
p7151
aS'intimidate'
p7152
asS'splashing'
p7153
(lp7154
S'spatter'
p7155
aS'splash'
p7156
aS'sprinkle'
p7157
aS'squelch'
p7158
asS'arranging'
p7159
(lp7160
S'arrangement'
p7161
aS'arrange'
p7162
aS'stage'
p7163
aS'format'
p7164
aS'dress'
p7165
asS'go'
p7166
(lp7167
S'adam'
p7168
aS'crack'
p7169
aS'travel'
p7170
aS'become'
p7171
aS'run'
p7172
aS'proceed'
p7173
aS'sound'
p7174
aS'function'
p7175
aS'run_low'
p7176
aS'move'
p7177
aS'survive'
p7178
aS'die'
p7179
aS'belong'
p7180
aS'start'
p7181
aS'blend'
p7182
aS'fit'
p7183
aS'rifle'
p7184
aS'plump'
p7185
aS'fail'
p7186
asS'Someone'
p7187
(lp7188
S'person'
p7189
asS'peering'
p7190
(lp7191
S'peer'
p7192
asS'young'
p7193
(lp7194
S'new'
p7195
aS'youthful'
p7196
aS'unseasoned'
p7197
asS'suits'
p7198
(lp7199
S'suit'
p7200
aS'lawsuit'
p7201
aS'courtship'
p7202
aS'befit'
p7203
aS'become'
p7204
asS'chaps'
p7205
(lp7206
S'chap'
p7207
aS'crevice'
p7208
asS'helps'
p7209
(lp7210
S'aid'
p7211
aS'assistant'
p7212
aS'avail'
p7213
aS'help'
p7214
aS'help_oneself'
p7215
aS'serve'
p7216
asS'striping'
p7217
(lp7218
S'stripe'
p7219
aS'deprive'
p7220
aS'undress'
p7221
aS'strip'
p7222
aS'leach'
p7223
aS'denude'
p7224
aS'plunder'
p7225
aS'clean'
p7226
asS'Not'
p7227
(lp7228
S'not'
p7229
asS'suite'
p7230
(lp7231
S'cortege'
p7232
asS'women'
p7233
(lp7234
S'woman'
p7235
aS'charwoman'
p7236
aS'womanhood'
p7237
asS'muzzles'
p7238
(lp7239
S'gun_muzzle'
p7240
aS'muzzle'
p7241
aS'gag'
p7242
asS'wave'
p7243
(lp7244
S'beckon'
p7245
aS'brandish'
p7246
aS'roll'
p7247
aS'curl'
p7248
asS'spoon'
p7249
(lp7250
S'smooch'
p7251
asS'putting'
p7252
(lp7253
S'putt'
p7254
aS'put'
p7255
aS'frame'
p7256
aS'invest'
p7257
aS'place'
p7258
aS'arrange'
p7259
asS'mixing'
p7260
(lp7261
S'mix'
p7262
aS'blend'
p7263
aS'desegregate'
p7264
aS'shuffle'
p7265
asS'practicing'
p7266
(lp7267
S'practice'
p7268
aS'drill'
p7269
aS'rehearse'
p7270
aS'commit'
p7271
asS'drinking'
p7272
(lp7273
S'drink'
p7274
aS'toast'
p7275
aS'drink_in'
p7276
asS'recreation'
p7277
(lp7278
S'diversion'
p7279
aS'refreshment'
p7280
asS'magic'
p7281
(lp7282
S'magic_trick'
p7283
aS'charming'
p7284
asS'Hay'
p7285
(lp7286
S'hay'
p7287
asS'experiencing'
p7288
(lp7289
S'experience'
p7290
aS'know'
p7291
aS'feel'
p7292
aS'have'
p7293
asS'watered'
p7294
(lp7295
S'water'
p7296
aS'moire'
p7297
asS'race'
p7298
(lp7299
S'subspecies'
p7300
aS'slipstream'
p7301
aS'raceway'
p7302
aS'rush'
p7303
asS'deleting'
p7304
(lp7305
S'delete'
p7306
aS'erase'
p7307
aS'edit'
p7308
asS'rack'
p7309
(lp7310
S'wrack'
p7311
aS'single-foot'
p7312
aS'extort'
p7313
aS'scud'
p7314
aS'torment'
p7315
asS'burrowed'
p7316
(lp7317
S'burrow'
p7318
asS'Vegetables'
p7319
(lp7320
S'vegetable'
p7321
asS'wrestling'
p7322
(lp7323
S'wrestle'
p7324
aS'writhe'
p7325
asS'ham'
p7326
(lp7327
S'overact'
p7328
asS'boots'
p7329
(lp7330
S'boot'
p7331
aS'bang'
p7332
aS'kick'
p7333
asS'shrimps'
p7334
(lp7335
S'runt'
p7336
aS'prawn'
p7337
aS'shrimp'
p7338
asS'jump'
p7339
(lp7340
S'leap'
p7341
aS'startle'
p7342
aS'leap_out'
p7343
aS'rise'
p7344
aS'derail'
p7345
aS'chute'
p7346
aS'jumpstart'
p7347
aS'alternate'
p7348
asS'carefully'
p7349
(lp7350
S'cautiously'
p7351
asS'hose'
p7352
(lp7353
S'hosiery'
p7354
asS'video'
p7355
(lp7356
S'video_recording'
p7357
aS'television'
p7358
asS'picked'
p7359
(lp7360
S'pick'
p7361
aS'blame'
p7362
aS'clean'
p7363
aS'foot'
p7364
aS'pluck'
p7365
aS'peck'
p7366
aS'nibble'
p7367
asS'pajamas'
p7368
(lp7369
S'pajama'
p7370
asS'plays'
p7371
(lp7372
S'play'
p7373
aS'maneuver'
p7374
aS'bid'
p7375
aS'playing_period'
p7376
aS'free_rein'
p7377
aS'shimmer'
p7378
aS'fun'
p7379
aS'looseness'
p7380
aS'turn'
p7381
aS'gambling'
p7382
aS'act'
p7383
aS'toy'
p7384
aS'dally'
p7385
aS'bring'
p7386
aS'bet'
p7387
aS'meet'
p7388
asS'deboning'
p7389
(lp7390
S'bone'
p7391
asS'cell'
p7392
(lp7393
S'cellular_telephone'
p7394
asS'Boys'
p7395
(lp7396
S'male_child'
p7397
aS'boy'
p7398
aS'son'
p7399
asS'waiting'
p7400
(lp7401
S'wait'
p7402
aS'expect'
p7403
asS'eating'
p7404
(lp7405
S'eat'
p7406
aS'feed'
p7407
aS'consume'
p7408
aS'corrode'
p7409
asS'flowing'
p7410
(lp7411
S'flow'
p7412
aS'run'
p7413
aS'hang'
p7414
aS'menstruate'
p7415
aS'streamlined'
p7416
asS'Video'
p7417
(lp7418
S'video'
p7419
aS'video_recording'
p7420
aS'television'
p7421
asS'bird'
p7422
(lp7423
S'dame'
p7424
aS'boo'
p7425
aS'shuttlecock'
p7426
asS'exercise'
p7427
(lp7428
S'use'
p7429
aS'exert'
p7430
aS'practice'
p7431
aS'drill'
p7432
asS'body'
p7433
(lp7434
S'torso'
p7435
aS'consistency'
p7436
aS'soundbox'
p7437
asS'leg'
p7438
(lp7439
S'branch'
p7440
aS'peg'
p7441
aS'stage'
p7442
asS'placing'
p7443
(lp7444
S'put'
p7445
aS'place'
p7446
aS'rate'
p7447
aS'locate'
p7448
aS'target'
p7449
aS'identify'
p7450
aS'set'
p7451
aS'invest'
p7452
aS'station'
p7453
asS'gathered'
p7454
(lp7455
S'gather'
p7456
aS'meet'
p7457
aS'accumulate'
p7458
aS'assemble'
p7459
aS'gain'
p7460
aS'collected'
p7461
asS'pushing'
p7462
(lp7463
S'push'
p7464
aS'advertise'
p7465
aS'tug'
p7466
aS'crusade'
p7467
aS'press'
p7468
asS'packing'
p7469
(lp7470
S'packing_material'
p7471
aS'pack'
p7472
aS'carry'
p7473
aS'throng'
p7474
aS'backpack'
p7475
aS'tamp_down'
p7476
aS'compact'
p7477
asS'let'
p7478
(lp7479
S'lashkar-e-taiba'
p7480
aS'permit'
p7481
aS'get'
p7482
aS'lease'
p7483
asS'sink'
p7484
(lp7485
S'sinkhole'
p7486
aS'cesspool'
p7487
aS'dip'
p7488
aS'slump'
p7489
aS'bury'
p7490
asS'great'
p7491
(lp7492
S'bang-up'
p7493
aS'capital'
p7494
aS'big'
p7495
asS'shades'
p7496
(lp7497
S'sunglasses'
p7498
aS'shade'
p7499
aS'nuance'
p7500
aS'tad'
p7501
aS'ghost'
p7502
aS'shadow'
p7503
asS'leaving'
p7504
(lp7505
S'departure'
p7506
aS'leave'
p7507
aS'exit'
p7508
aS'entrust'
p7509
aS'bequeath'
p7510
aS'impart'
p7511
aS'forget'
p7512
asS'whisking'
p7513
(lp7514
S'whisk'
p7515
asS'Arabic'
p7516
(lp7517
S'arabic'
p7518
asS'spices'
p7519
(lp7520
S'spice'
p7521
aS'spiciness'
p7522
aS'zest'
p7523
asS'makes'
p7524
(lp7525
S'brand'
p7526
aS'shuffle'
p7527
aS'make'
p7528
aS'induce'
p7529
aS'cause'
p7530
aS'produce'
p7531
aS'draw'
p7532
aS'create'
p7533
aS'gain'
p7534
aS'do'
p7535
aS'form'
p7536
aS'reach'
p7537
aS'construct'
p7538
aS'name'
p7539
aS'have'
p7540
aS'lay_down'
p7541
aS'hold'
p7542
aS'take'
p7543
aS'stool'
p7544
aS'cook'
p7545
aS'seduce'
p7546
asS'win'
p7547
(lp7548
S'winnings'
p7549
aS'acquire'
p7550
aS'gain'
p7551
aS'succeed'
p7552
asS'baskets'
p7553
(lp7554
S'basket'
p7555
asS'limb'
p7556
(lp7557
S'arm'
p7558
asS'tap'
p7559
(lp7560
S'pat'
p7561
aS'rap'
p7562
aS'water_faucet'
p7563
aS'wiretap'
p7564
aS'exploit'
p7565
aS'tapdance'
p7566
aS'solicit'
p7567
asS'singing'
p7568
(lp7569
S'tattle'
p7570
aS'sing'
p7571
aS'whistle'
p7572
aS'spill_the_beans'
p7573
aS'singe'
p7574
aS'scorch'
p7575
aS'cantabile'
p7576
asS'standing'
p7577
(lp7578
S'stand'
p7579
aS'digest'
p7580
aS'resist'
p7581
asS'fed'
p7582
(lp7583
S'federal'
p7584
aS'federal_reserve_system'
p7585
aS'feed'
p7586
aS'run'
p7587
aS'prey'
p7588
aS'fertilize'
p7589
asS'hammered'
p7590
(lp7591
S'hammer'
p7592
aS'forge'
p7593
asS'camera'
p7594
(lp7595
S'television_camera'
p7596
asS'toy'
p7597
(lp7598
S'plaything'
p7599
aS'miniature'
p7600
aS'toy_dog'
p7601
aS'dally'
p7602
aS'play'
p7603
asS'cheeks'
p7604
(lp7605
S'cheek'
p7606
aS'impudence'
p7607
aS'buttock'
p7608
aS'boldness'
p7609
asS'trail'
p7610
(lp7611
S'lead'
p7612
aS'drag'
p7613
aS'chase'
p7614
asS'train'
p7615
(lp7616
S'string'
p7617
aS'caravan'
p7618
aS'gearing'
p7619
aS'discipline'
p7620
aS'prepare'
p7621
aS'educate'
p7622
aS'aim'
p7623
aS'coach'
p7624
aS'trail'
p7625
asS'rabbit'
p7626
(lp7627
S'lapin'
p7628
asS'tattered'
p7629
(lp7630
S'shattered'
p7631
asS'baby'
p7632
(lp7633
S'child'
p7634
aS'pamper'
p7635
asS'dicing'
p7636
(lp7637
S'cube'
p7638
aS'dice'
p7639
asS'tearing'
p7640
(lp7641
S'lacrimation'
p7642
aS'tear'
p7643
aS'pluck'
p7644
aS'fierce'
p7645
asS'charity'
p7646
(lp7647
S"jacob's_ladder"
p7648
asS'balls'
p7649
(lp7650
S'ball'
p7651
aS'musket_ball'
p7652
aS'testis'
p7653
asS'animals'
p7654
(lp7655
S'animal'
p7656
asS'tunnel'
p7657
(lp7658
S'burrow'
p7659
asS'ride'
p7660
(lp7661
S'drive'
p7662
aS'tease'
p7663
aS'depend_on'
p7664
asS'getting'
p7665
(lp7666
S'acquiring'
p7667
aS'get'
p7668
aS'become'
p7669
aS'receive'
p7670
aS'arrive'
p7671
aS'bring'
p7672
aS'experience'
p7673
aS'pay_back'
p7674
aS'have'
p7675
aS'induce'
p7676
aS'grow'
p7677
aS'contract'
p7678
aS'make'
p7679
aS'drive'
p7680
aS'catch'
p7681
aS'scram'
p7682
aS'draw'
p7683
aS'perplex'
p7684
aS'get_down'
p7685
aS'suffer'
p7686
aS'beget'
p7687
asS'Tofu'
p7688
(lp7689
S'bean_curd'
p7690
asS'crossed'
p7691
(lp7692
S'traverse'
p7693
aS'intersect'
p7694
aS'thwart'
p7695
aS'cross'
p7696
aS'crossbreed'
p7697
asS'thin'
p7698
(lp7699
S'dilute'
p7700
aS'reduce'
p7701
aS'slender'
p7702
aS'sparse'
p7703
aS'flimsy'
p7704
aS'thinly'
p7705
asS'drill'
p7706
(lp7707
S'exercise'
p7708
aS'bore'
p7709
asS'closing'
p7710
(lp7711
S'shutting'
p7712
aS'conclusion'
p7713
aS'closure'
p7714
aS'completion'
p7715
aS'close'
p7716
aS'close_up'
p7717
aS'conclude'
p7718
asS'performed'
p7719
(lp7720
S'perform'
p7721
aS'do'
p7722
asS'reserved'
p7723
(lp7724
S'reserve'
p7725
aS'allow'
p7726
asS'bent'
p7727
(lp7728
S'bend'
p7729
aS'flex'
p7730
aS'crouch'
p7731
aS'deflect'
p7732
aS'bended'
p7733
asS'mowing'
p7734
(lp7735
S'mow'
p7736
aS'pout'
p7737
asS'ferrets'
p7738
(lp7739
S'black-footed_ferret'
p7740
aS'ferret'
p7741
aS'ferret_out'
p7742
asS'flaring'
p7743
(lp7744
S'flare'
p7745
aS'flare_out'
p7746
aS'erupt'
p7747
aS'aflare'
p7748
asS'allowed'
p7749
(lp7750
S'let'
p7751
aS'permit'
p7752
aS'allow'
p7753
aS'leave'
p7754
aS'admit'
p7755
aS'give_up'
p7756
asS'pieces'
p7757
(lp7758
S'piece'
p7759
aS'part'
p7760
aS'musical_composition'
p7761
aS'firearm'
p7762
aS"objet_d'art"
p7763
aS'while'
p7764
aS'slice'
p7765
aS'man'
p7766
aS'patch'
p7767
aS'assemble'
p7768
aS'nibble'
p7769
asS'high'
p7770
(lp7771
S'senior_high_school'
p7772
aS'high_gear'
p7773
aS'eminent'
p7774
aS'gamey'
p7775
asS'pulling'
p7776
(lp7777
S'pull'
p7778
aS'attract'
p7779
aS'perpetrate'
p7780
aS'draw'
p7781
aS'rend'
p7782
aS'pluck'
p7783
aS'extract'
p7784
asS'slip'
p7785
(lp7786
S'faux_pas'
p7787
aS'cutting'
p7788
aS'mooring'
p7789
aS'slickness'
p7790
aS'strip'
p7791
aS'chemise'
p7792
aS'case'
p7793
aS'skid'
p7794
aS'steal'
p7795
aS'err'
p7796
aS'dislocate'
p7797
asS'buckets'
p7798
(lp7799
S'bucket'
p7800
asS'tan'
p7801
(lp7802
S'tangent'
p7803
asS'Several'
p7804
(lp7805
S'several'
p7806
aS'respective'
p7807
asS'onions'
p7808
(lp7809
S'onion'
p7810
asS'Christmas'
p7811
(lp7812
S'christmas'
p7813
asS'paws'
p7814
(lp7815
S'paw'
p7816
aS'hand'
p7817
asS'sit'
p7818
(lp7819
S'sit_down'
p7820
aS'model'
p7821
aS'ride'
p7822
aS'baby-sit'
p7823
aS'seat'
p7824
asS'trumpet'
p7825
(lp7826
S'cornet'
p7827
asS'boxing'
p7828
(lp7829
S'packing'
p7830
aS'box'
p7831
asS'arrangement'
p7832
(lp7833
S'agreement'
p7834
aS'placement'
p7835
aS'musical_arrangement'
p7836
asS'forest'
p7837
(lp7838
S'afforest'
p7839
asS'stand'
p7840
(lp7841
S'base'
p7842
aS'rack'
p7843
aS'point_of_view'
p7844
aS'stall'
p7845
aS'bandstand'
p7846
aS'digest'
p7847
aS'resist'
p7848
asS'buildings'
p7849
(lp7850
S'building'
p7851
aS'construction'
p7852
aS'construct'
p7853
aS'build_up'
p7854
aS'build'
p7855
asS'blocks'
p7856
(lp7857
S'block'
p7858
aS'pulley'
p7859
aS'engine_block'
p7860
aS'blockage'
p7861
aS'auction_block'
p7862
aS'blocking'
p7863
aS'barricade'
p7864
aS'obstruct'
p7865
aS'stop'
p7866
aS'jam'
p7867
aS'stuff'
p7868
aS'parry'
p7869
aS'forget'
p7870
aS'freeze'
p7871
asS'farm'
p7872
(lp7873
S'grow'
p7874
asS'peeling'
p7875
(lp7876
S'desquamation'
p7877
aS'skin'
p7878
aS'peel_off'
p7879
aS'undress'
p7880
asS'waters'
p7881
(lp7882
S'amniotic_fluid'
p7883
aS'water'
p7884
aS'body_of_water'
p7885
aS'water_system'
p7886
aS'urine'
p7887
asS'tied'
p7888
(lp7889
S'tie'
p7890
aS'connect'
p7891
aS'bind'
p7892
aS'marry'
p7893
aS'trussed'
p7894
aS'laced'
p7895
asS'Frisbee'
p7896
(lp7897
S'frisbee'
p7898
asS'maracas'
p7899
(lp7900
S'maraca'
p7901
asS'frowning'
p7902
(lp7903
S'frown'
p7904
asS'chasing'
p7905
(lp7906
S'chase'
p7907
aS'furrow'
p7908
asS'light'
p7909
(lp7910
S'luminosity'
p7911
aS'sparkle'
p7912
aS'inner_light'
p7913
aS'lighter'
p7914
aS'light_up'
p7915
aS'alight'
p7916
aS'ignite'
p7917
aS'fall'
p7918
aS'unhorse'
p7919
aS'unaccented'
p7920
aS'clean'
p7921
aS'faint'
p7922
aS'abstemious'
p7923
aS'idle'
p7924
aS'easy'
p7925
aS'lightly'
p7926
asS'straps'
p7927
(lp7928
S'strap'
p7929
aS'flog'
p7930
asS'liner'
p7931
(lp7932
S'lining'
p7933
asS'One'
p7934
(lp7935
S'one'
p7936
aS'matchless'
p7937
asS'crawling'
p7938
(lp7939
S'crawl'
p7940
aS'fawn'
p7941
asS'furious'
p7942
(lp7943
S'ferocious'
p7944
aS'angered'
p7945
aS'angry'
p7946
asS'erasing'
p7947
(lp7948
S'erase'
p7949
asS'bathing'
p7950
(lp7951
S'washup'
p7952
aS'bathe'
p7953
asS'poking'
p7954
(lp7955
S'jab'
p7956
aS'intrude'
p7957
aS'poke'
p7958
aS'thump'
p7959
asS'competing'
p7960
(lp7961
S'compete'
p7962
asS'quietly'
p7963
(lp7964
S'softly'
p7965
aS'restfully'
p7966
asS'looks'
p7967
(lp7968
S'expression'
p7969
aS'look'
p7970
aS'spirit'
p7971
aS'search'
p7972
aS'front'
p7973
aS'attend'
p7974
aS'expect'
p7975
aS'count'
p7976
asS'bunch'
p7977
(lp7978
S'crowd'
p7979
aS'bunch_together'
p7980
asS'raw'
p7981
(lp7982
S'natural'
p7983
aS'naked'
p7984
aS'crude'
p7985
aS'sensitive'
p7986
aS'bleak'
p7987
aS'bare-assed'
p7988
asS'underwater'
p7989
(lp7990
S'submerged'
p7991
aS'subaqueous'
p7992
asS'squatting'
p7993
(lp7994
S'knee_bend'
p7995
aS'squat'
p7996
asS'covered'
p7997
(lp7998
S'cover'
p7999
aS'embrace'
p8000
aS'traverse'
p8001
aS'report'
p8002
aS'shroud'
p8003
aS'breed'
p8004
aS'overlay'
p8005
aS'brood'
p8006
asS'holiday'
p8007
(lp8008
S'vacation'
p8009
asS'piecing'
p8010
(lp8011
S'patch'
p8012
aS'assemble'
p8013
aS'piece'
p8014
aS'nibble'
p8015
asS'practice'
p8016
(lp8017
S'exercise'
p8018
aS'drill'
p8019
aS'rehearse'
p8020
aS'commit'
p8021
asS'dock'
p8022
(lp8023
S'pier'
p8024
aS'bobtail'
p8025
asS'cutting'
p8026
(lp8027
S'film_editing'
p8028
aS'cut'
p8029
aS'clipping'
p8030
aS'carving'
p8031
aS'reduce'
p8032
aS'swerve'
p8033
aS'write_out'
p8034
aS'edit'
p8035
aS'hack'
p8036
aS'switch_off'
p8037
aS'ignore'
p8038
aS'abridge'
p8039
aS'dilute'
p8040
aS'geld'
p8041
aS'bleak'
p8042
asS'snake'
p8043
(lp8044
S'hydra'
p8045
asS'hands'
p8046
(lp8047
S'work_force'
p8048
aS'hand'
p8049
aS'hired_hand'
p8050
aS'handwriting'
p8051
aS'bridge_player'
p8052
aS'pass'
p8053
asS'front'
p8054
(lp8055
S'battlefront'
p8056
aS'front_man'
p8057
aS'presence'
p8058
aS'movement'
p8059
asS'cage'
p8060
(lp8061
S'batting_cage'
p8062
asS'day'
p8063
(lp8064
S'sidereal_day'
p8065
asS'stunts'
p8066
(lp8067
S'stunt'
p8068
asS'sniffing'
p8069
(lp8070
S'sniff'
p8071
asS'slide'
p8072
(lp8073
S'swoop'
p8074
aS'chute'
p8075
aS'skid'
p8076
aS'slither'
p8077
asS'crossing'
p8078
(lp8079
S'ford'
p8080
aS'intersection'
p8081
aS'hybridization'
p8082
aS'traverse'
p8083
aS'intersect'
p8084
aS'thwart'
p8085
aS'cross'
p8086
aS'crossbreed'
p8087
asS'onlookers'
p8088
(lp8089
S'onlooker'
p8090
asS'shaking'
p8091
(lp8092
S'shake'
p8093
aS'judder'
p8094
aS'rock'
p8095
aS'stimulate'
p8096
asS'glasses'
p8097
(lp8098
S'spectacles'
p8099
aS'glass'
p8100
aS'field_glass'
p8101
aS'methamphetamine'
p8102
aS'looking_glass'
p8103
aS'glaze'
p8104
asS'doing'
p8105
(lp8106
S'make'
p8107
aS'perform'
p8108
aS'do'
p8109
aS'cause'
p8110
aS'practice'
p8111
aS'suffice'
p8112
aS'act'
p8113
aS'serve'
p8114
aS'dress'
p8115
asS'waking'
p8116
(lp8117
S'wake'
p8118
aS'wake_up'
p8119
aS'inflame'
p8120
aS'awaken'
p8121
asS'related'
p8122
(lp8123
S'associate'
p8124
aS'refer'
p8125
aS'relate'
p8126
asS'books'
p8127
(lp8128
S'book'
p8129
aS'record'
p8130
aS'script'
p8131
aS'ledger'
p8132
aS'koran'
p8133
aS'bible'
p8134
aS'reserve'
p8135
asS'sandy'
p8136
(lp8137
S'flaxen'
p8138
aS'arenaceous'
p8139
asS'out'
p8140
(lp8141
S'come_out_of_the_closet'
p8142
aS'extinct'
p8143
aS'forbidden'
p8144
aS'knocked_out'
p8145
aS'away'
p8146
asS'desert'
p8147
(lp8148
S'abandon'
p8149
aS'defect'
p8150
asS'playground'
p8151
(lp8152
S'resort_area'
p8153
asS'red'
p8154
(lp8155
S'bolshevik'
p8156
aS'loss'
p8157
aS'crimson'
p8158
asS'pours'
p8159
(lp8160
S'pour'
p8161
aS'decant'
p8162
asS'completely'
p8163
(lp8164
S'wholly'
p8165
asS'repairing'
p8166
(lp8167
S'repair'
p8168
aS'compensate'
p8169
aS'rectify'
p8170
aS'animate'
p8171
asS'backwards'
p8172
(lp8173
S'back'
p8174
aS'backward'
p8175
asS'yard'
p8176
(lp8177
S'thousand'
p8178
aS'cubic_yard'
p8179
asS'route'
p8180
(lp8181
S'path'
p8182
aS'road'
p8183
asS'nailing'
p8184
(lp8185
S'nail'
p8186
aS'collar'
p8187
aS'smash'
p8188
aS'nail_down'
p8189
aS'breeze_through'
p8190
aS'pinpoint'
p8191
aS'complete'
p8192
asS'wading'
p8193
(lp8194
S'wade'
p8195
aS'pack'
p8196
aS'jam'
p8197
asS'biting'
p8198
(lp8199
S'bite'
p8200
aS'sting'
p8201
aS'barbed'
p8202
asS'motorbikes'
p8203
(lp8204
S'minibike'
p8205
aS'motorbike'
p8206
asS'south'
p8207
(lp8208
S'confederacy'
p8209
asS'hurdle'
p8210
(lp8211
S'vault'
p8212
asS'funnily'
p8213
(lp8214
S'queerly'
p8215
asS'art'
p8216
(lp8217
S'artwork'
p8218
asS'sadly'
p8219
(lp8220
S'deplorably'
p8221
asS'monkey'
p8222
(lp8223
S'imp'
p8224
aS'tamper'
p8225
aS'putter'
p8226
asS'bears'
p8227
(lp8228
S'bear'
p8229
aS'give_birth'
p8230
aS'digest'
p8231
aS'hold'
p8232
aS'yield'
p8233
aS'wear'
p8234
aS'behave'
p8235
aS'have_a_bun_in_the_oven'
p8236
asS'chased'
p8237
(lp8238
S'pursued'
p8239
aS'chase'
p8240
aS'furrow'
p8241
asS'stroked'
p8242
(lp8243
S'stroke'
p8244
asS'really'
p8245
(lp8246
S'truly'
p8247
aS'actually'
p8248
aS'in_truth'
p8249
aS'very'
p8250
asS'paved'
p8251
(lp8252
S'pave'
p8253
asS'gear'
p8254
(lp8255
S'gearing'
p8256
asS'shorts'
p8257
(lp8258
S'short_pants'
p8259
aS'drawers'
p8260
aS'short'
p8261
aS'short_circuit'
p8262
aS'shortstop'
p8263
aS'short-change'
p8264
aS'short-circuit'
p8265
asS'shelf'
p8266
(lp8267
S'ledge'
p8268
asS'nobody'
p8269
(lp8270
S'cipher'
p8271
asS'foamy'
p8272
(lp8273
S'foaming'
p8274
aS'bubbling'
p8275
asS'steel'
p8276
(lp8277
S'sword'
p8278
asS'wet'
p8279
(lp8280
S'moisture'
p8281
aS'besotted'
p8282
asS'bed'
p8283
(lp8284
S'seam'
p8285
aS'layer'
p8286
aS'sleep_together'
p8287
aS'go_to_bed'
p8288
asS'appealing'
p8289
(lp8290
S'appeal'
p8291
aS'attract'
p8292
aS'invoke'
p8293
aS'sympathetic'
p8294
asS'steep'
p8295
(lp8296
S'exorbitant'
p8297
asS'collecting'
p8298
(lp8299
S'collection'
p8300
aS'roll_up'
p8301
aS'collect'
p8302
aS'gather'
p8303
asS'counter'
p8304
(lp8305
S'buffet'
p8306
aS'rejoinder'
p8307
aS'counterpunch'
p8308
aS'anticipate'
p8309
aS'antagonistic'
p8310
asS'carrots'
p8311
(lp8312
S'carrot'
p8313
asS'teenagers'
p8314
(lp8315
S'adolescent'
p8316
asS'patting'
p8317
(lp8318
S'chuck'
p8319
aS'dab'
p8320
asS'gentle'
p8321
(lp8322
S'pacify'
p8323
aS'ennoble'
p8324
aS'aristocratic'
p8325
aS'docile'
p8326
aS'easy'
p8327
asS'comfortably'
p8328
(lp8329
S'well'
p8330
asS'defending'
p8331
(lp8332
S'defend'
p8333
aS'fight'
p8334
aS'champion'
p8335
aS'maintain'
p8336
asS'have'
p8337
(lp8338
S'rich_person'
p8339
aS'experience'
p8340
aS'own'
p8341
aS'get'
p8342
aS'consume'
p8343
aS'hold'
p8344
aS'induce'
p8345
aS'accept'
p8346
aS'receive'
p8347
aS'suffer'
p8348
aS'give_birth'
p8349
aS'take'
p8350
asS'Soccer'
p8351
(lp8352
S'soccer'
p8353
asS'emptying'
p8354
(lp8355
S'empty'
p8356
aS'vacate'
p8357
aS'evacuate'
p8358
asS'Oil'
p8359
(lp8360
S'oil'
p8361
aS'petroleum'
p8362
aS'vegetable_oil'
p8363
aS'anoint'
p8364
asS'studying'
p8365
(lp8366
S'perusal'
p8367
aS'analyze'
p8368
aS'study'
p8369
aS'learn'
p8370
asS'purchasing'
p8371
(lp8372
S'buying'
p8373
aS'buy'
p8374
asS'outward'
p8375
(lp8376
S'outbound'
p8377
asS'blades'
p8378
(lp8379
S'blade'
p8380
aS'sword'
p8381
asS'passionately'
p8382
(lp8383
S'stormily'
p8384
asS'who'
p8385
(lp8386
S'world_health_organization'
p8387
asS'pausing'
p8388
(lp8389
S'hesitate'
p8390
aS'pause'
p8391
asS'cracking'
p8392
(lp8393
S'crack'
p8394
aS'fracture'
p8395
aS'snap'
p8396
aS'break_through'
p8397
aS'crack_up'
p8398
aS'bang-up'
p8399
asS'class'
p8400
(lp8401
S'course'
p8402
aS'classify'
p8403
asS'bred'
p8404
(lp8405
S'engender'
p8406
aS'breed'
p8407
asS'Some'
p8408
(lp8409
S'some'
p8410
aS'approximately'
p8411
asS'wiping'
p8412
(lp8413
S'wipe'
p8414
asS'face'
p8415
(lp8416
S'expression'
p8417
aS'side'
p8418
aS'grimace'
p8419
aS'font'
p8420
aS'boldness'
p8421
aS'confront'
p8422
aS'front'
p8423
asS'looked'
p8424
(lp8425
S'look'
p8426
aS'search'
p8427
aS'front'
p8428
aS'attend'
p8429
aS'expect'
p8430
aS'count'
p8431
asS'skunk'
p8432
(lp8433
S'rotter'
p8434
aS'shutout'
p8435
aS'pot'
p8436
aS'lurch'
p8437
asS'painting'
p8438
(lp8439
S'paint'
p8440
asS'emerging'
p8441
(lp8442
S'emerge'
p8443
aS'issue'
p8444
aS'come_forth'
p8445
aS'emergent'
p8446
asS'stove'
p8447
(lp8448
S'stave'
p8449
asS'spanking'
p8450
(lp8451
S'spank'
p8452
aS'alert'
p8453
asS'bikes'
p8454
(lp8455
S'motorcycle'
p8456
aS'bicycle'
p8457
asS'soldiers'
p8458
(lp8459
S'soldier'
p8460
asS'rough'
p8461
(lp8462
S'rough_in'
p8463
aS'approximate'
p8464
aS'rocky'
p8465
aS'boisterous'
p8466
aS'grating'
p8467
aS'pugnacious'
p8468
aS'uncut'
p8469
aS'crude'
p8470
aS'harsh'
p8471
aS'roughly'
p8472
asS'grabbed'
p8473
(lp8474
S'catch'
p8475
aS'snap_up'
p8476
aS'grab'
p8477
asS'tire'
p8478
(lp8479
S'run_down'
p8480
aS'bore'
p8481
asS'jar'
p8482
(lp8483
S'jolt'
p8484
aS'clash'
p8485
asS'buttons'
p8486
(lp8487
S'button'
p8488
aS'push_button'
p8489
aS'clitoris'
p8490
aS'release'
p8491
asS'jam'
p8492
(lp8493
S'fix'
p8494
aS'crush'
p8495
aS'jamming'
p8496
aS'throng'
p8497
aS'obstruct'
p8498
asS'tape'
p8499
(lp8500
S'magnetic_tape'
p8501
aS'videotape'
p8502
aS'record'
p8503
asS'riding'
p8504
(lp8505
S'ride'
p8506
aS'tease'
p8507
aS'drive'
p8508
aS'depend_on'
p8509
aS'rid'
p8510
asS'watching'
p8511
(lp8512
S'observation'
p8513
aS'watch'
p8514
aS'determine'
p8515
asS'bear'
p8516
(lp8517
S'give_birth'
p8518
aS'digest'
p8519
aS'hold'
p8520
aS'yield'
p8521
aS'wear'
p8522
aS'behave'
p8523
aS'have_a_bun_in_the_oven'
p8524
asS'stars'
p8525
(lp8526
S'star'
p8527
aS'ace'
p8528
aS'headliner'
p8529
aS'asterisk'
p8530
aS'star_topology'
p8531
asS'cubs'
p8532
(lp8533
S'cub'
p8534
asS'beak'
p8535
(lp8536
S'peck'
p8537
asS'striped'
p8538
(lp8539
S'stripe'
p8540
aS'deprive'
p8541
aS'undress'
p8542
aS'strip'
p8543
aS'leach'
p8544
aS'denude'
p8545
aS'plunder'
p8546
aS'clean'
p8547
asS'areas'
p8548
(lp8549
S'area'
p8550
aS'sphere'
p8551
asS'Racers'
p8552
(lp8553
S'racer'
p8554
asS'married'
p8555
(lp8556
S'marry'
p8557
aS'marital'
p8558
asS'teams'
p8559
(lp8560
S'team'
p8561
asS'Ferrets'
p8562
(lp8563
S'black-footed_ferret'
p8564
aS'ferret'
p8565
aS'ferret_out'
p8566
asS'view'
p8567
(lp8568
S'position'
p8569
aS'opinion'
p8570
aS'scene'
p8571
aS'horizon'
p8572
aS'see'
p8573
aS'watch'
p8574
asS'spotted'
p8575
(lp8576
S'descry'
p8577
aS'spot'
p8578
aS'blemish'
p8579
aS'patched'
p8580
asS'crocheting'
p8581
(lp8582
S'crochet'
p8583
asS'frame'
p8584
(lp8585
S'human_body'
p8586
aS'inning'
p8587
aS'frame_of_reference'
p8588
aS'skeletal_system'
p8589
aS'skeleton'
p8590
aS'ensnare'
p8591
asS'computer'
p8592
(lp8593
S'calculator'
p8594
asS'Various'
p8595
(lp8596
S'assorted'
p8597
aS'respective'
p8598
aS'diverse'
p8599
aS'versatile'
p8600
asS'skateboarding'
p8601
(lp8602
S'skateboard'
p8603
asS'racket'
p8604
(lp8605
S'noise'
p8606
aS'revel'
p8607
asS'tuxedos'
p8608
(lp8609
S'dinner_jacket'
p8610
asS'packed'
p8611
(lp8612
S'pack'
p8613
aS'carry'
p8614
aS'throng'
p8615
aS'backpack'
p8616
aS'tamp_down'
p8617
aS'compact'
p8618
aS'jammed'
p8619
asS'wire'
p8620
(lp8621
S'telegram'
p8622
aS'cable'
p8623
aS'electrify'
p8624
asS'pattern'
p8625
(lp8626
S'form'
p8627
aS'practice'
p8628
aS'design'
p8629
aS'convention'
p8630
aS'blueprint'
p8631
aS'traffic_pattern'
p8632
aS'radiation_pattern'
p8633
aS'model'
p8634
asS'carriage'
p8635
(lp8636
S'passenger_car'
p8637
aS'baby_buggy'
p8638
asS'state'
p8639
(lp8640
S'state_of_matter'
p8641
aS'country'
p8642
aS'department_of_state'
p8643
aS'submit'
p8644
aS'express'
p8645
asS'closed'
p8646
(lp8647
S'close'
p8648
aS'close_up'
p8649
aS'conclude'
p8650
aS'shut'
p8651
asS'email'
p8652
(lp8653
S'electronic_mail'
p8654
aS'e-mail'
p8655
asS'pants'
p8656
(lp8657
S'bloomers'
p8658
aS'pant'
p8659
aS'trouser'
p8660
aS'gasp'
p8661
asS'opening'
p8662
(lp8663
S'possibility'
p8664
aS'orifice'
p8665
aS'hatchway'
p8666
aS'first_step'
p8667
aS'open'
p8668
aS'unfold'
p8669
aS'afford'
p8670
asS'caribous'
p8671
(lp8672
S'caribou'
p8673
asS'kicking'
p8674
(lp8675
S'kick'
p8676
aS'kick_back'
p8677
aS'complain'
p8678
asS'rinsed'
p8679
(lp8680
S'rinse'
p8681
aS'wash'
p8682
aS'gargle'
p8683
asS'police'
p8684
(lp8685
S'patrol'
p8686
asS'clove'
p8687
(lp8688
S'cleave'
p8689
aS'cling'
p8690
asS'drum'
p8691
(lp8692
S'barrel'
p8693
aS'brake_drum'
p8694
aS'cram'
p8695
asS'tires'
p8696
(lp8697
S'tire'
p8698
aS'run_down'
p8699
aS'bore'
p8700
asS'boulders'
p8701
(lp8702
S'boulder'
p8703
asS'figures'
p8704
(lp8705
S'figure'
p8706
aS'human_body'
p8707
aS'digit'
p8708
aS'name'
p8709
aS'number'
p8710
aS'trope'
p8711
aS'design'
p8712
aS'calculate'
p8713
aS'visualize'
p8714
asS'passing'
p8715
(lp8716
S'pass'
p8717
aS'passage'
p8718
aS'travel_by'
p8719
aS'legislate'
p8720
aS'elapse'
p8721
aS'run'
p8722
aS'happen'
p8723
aS'spend'
p8724
aS'guide'
p8725
aS'communicate'
p8726
aS'evanesce'
p8727
aS'exceed'
p8728
aS'sink'
p8729
aS'fall'
p8730
aS'authorize'
p8731
aS'die'
p8732
aS'excrete'
p8733
aS'ephemeral'
p8734
aS'casual'
p8735
aS'extremely'
p8736
asS'jersey'
p8737
(lp8738
S'new_jersey'
p8739
asS'wrestlers'
p8740
(lp8741
S'wrestler'
p8742
asS'wall'
p8743
(lp8744
S'rampart'
p8745
asS'teasing'
p8746
(lp8747
S'tease'
p8748
aS'comb-out'
p8749
aS'mocking'
p8750
aS'annoying'
p8751
asS'walk'
p8752
(lp8753
S'base_on_balls'
p8754
aS'walk_of_life'
p8755
asS'Music'
p8756
(lp8757
S'music'
p8758
asS'table'
p8759
(lp8760
S'mesa'
p8761
aS'board'
p8762
aS'postpone'
p8763
asS'trays'
p8764
(lp8765
S'tray'
p8766
asS'pouring'
p8767
(lp8768
S'pour'
p8769
aS'decant'
p8770
aS'gushing'
p8771
asS'motorbike'
p8772
(lp8773
S'minibike'
p8774
asS'muddy'
p8775
(lp8776
S'boggy'
p8777
aS'mucky'
p8778
aS'dirty'
p8779
aS'cloudy'
p8780
asS'reindeer'
p8781
(lp8782
S'caribou'
p8783
asS'poured'
p8784
(lp8785
S'pour'
p8786
aS'decant'
p8787
asS'slowly'
p8788
(lp8789
S'lento'
p8790
asS'waste'
p8791
(lp8792
S'thriftlessness'
p8793
aS'barren'
p8794
aS'neutralize'
p8795
aS'consume'
p8796
aS'pine_away'
p8797
aS'lay_waste_to'
p8798
aS'godforsaken'
p8799
asS'shoulders'
p8800
(lp8801
S'shoulder'
p8802
asS'stationed'
p8803
(lp8804
S'station'
p8805
asS'painted'
p8806
(lp8807
S'paint'
p8808
aS'motley'
p8809
asS'ridden'
p8810
(lp8811
S'ride'
p8812
aS'tease'
p8813
aS'drive'
p8814
aS'depend_on'
p8815
asS'sausages'
p8816
(lp8817
S'sausage'
p8818
aS'blimp'
p8819
asS'roasting'
p8820
(lp8821
S'roast'
p8822
aS'ridicule'
p8823
asS'bull'
p8824
(lp8825
S'bullshit'
p8826
aS'taurus'
p8827
aS"bull's_eye"
p8828
aS"talk_through_one's_hat"
p8829
asS'smoking'
p8830
(lp8831
S'smoke'
p8832
aS'fume'
p8833
asS'Seasoning'
p8834
(lp8835
S'flavorer'
p8836
aS'seasoning'
p8837
aS'season'
p8838
aS'temper'
p8839
asS'owns'
p8840
(lp8841
S'own'
p8842
asS'cornering'
p8843
(lp8844
S'corner'
p8845
asS'pictures'
p8846
(lp8847
S'picture'
p8848
aS'painting'
p8849
aS'mental_picture'
p8850
aS'movie'
p8851
aS'video'
p8852
aS'word_picture'
p8853
aS'photograph'
p8854
aS'visualize'
p8855
asS'ringing'
p8856
(lp8857
S'ring'
p8858
aS'plangency'
p8859
aS'resound'
p8860
aS'call'
p8861
aS'surround'
p8862
asS'almost'
p8863
(lp8864
S'about'
p8865
asS'coating'
p8866
(lp8867
S'application'
p8868
aS'coat'
p8869
asS'surface'
p8870
(lp8871
S'open'
p8872
aS'airfoil'
p8873
aS'coat'
p8874
aS'come_on'
p8875
asS'swinging'
p8876
(lp8877
S'swing'
p8878
aS'singe'
p8879
aS'dangle'
p8880
aS'lilting'
p8881
asS'trotting'
p8882
(lp8883
S'trot'
p8884
asS'Sunglasses'
p8885
(lp8886
S'sunglasses'
p8887
aS'sunglass'
p8888
asS'concealing'
p8889
(lp8890
S'concealment'
p8891
aS'hide'
p8892
aS'conceal'
p8893
asS'cross'
p8894
(lp8895
S'crisscross'
p8896
aS'hybrid'
p8897
aS'hybridization'
p8898
aS'traverse'
p8899
aS'intersect'
p8900
aS'thwart'
p8901
aS'crossbreed'
p8902
aS'crabbed'
p8903
asS'strange'
p8904
(lp8905
S'foreign'
p8906
asS'digging'
p8907
(lp8908
S'excavation'
p8909
aS'dig'
p8910
aS'labor'
p8911
aS'excavate'
p8912
aS'jab'
p8913
aS'grok'
p8914
asS'Pasta'
p8915
(lp8916
S'pasta'
p8917
asS'tomatoes'
p8918
(lp8919
S'tomato'
p8920
asS'gamer'
p8921
(lp8922
S'crippled'
p8923
aS'game'
p8924
asS'pull-ups'
p8925
(lp8926
S'pull-in'
p8927
aS'pull-up'
p8928
asS'ball'
p8929
(lp8930
S'musket_ball'
p8931
aS'testis'
p8932
asS'dusk'
p8933
(lp8934
S'twilight'
p8935
asS'Potatoes'
p8936
(lp8937
S'potato'
p8938
asS'bale'
p8939
(lp8940
S'basel'
p8941
asS'spitting'
p8942
(lp8943
S'spit'
p8944
aS'sprinkle'
p8945
aS'skewer'
p8946
asS'magician'
p8947
(lp8948
S'sorcerer'
p8949
asS'collar'
p8950
(lp8951
S'choker'
p8952
aS'apprehension'
p8953
asS'off'
p8954
(lp8955
S'murder'
p8956
aS'away'
p8957
asS'Adults'
p8958
(lp8959
S'adult'
p8960
asS'banging'
p8961
(lp8962
S'battering'
p8963
aS'slam'
p8964
aS'bang'
p8965
aS'sleep_together'
p8966
aS'spang'
p8967
aS'humongous'
p8968
asS'fighting'
p8969
(lp8970
S'fight'
p8971
aS'contend'
p8972
aS'crusade'
p8973
aS'active'
p8974
asS'dressed'
p8975
(lp8976
S'dress'
p8977
aS'preen'
p8978
aS'trim'
p8979
aS'snip'
p8980
aS'appareled'
p8981
asS'position'
p8982
(lp8983
S'military_position'
p8984
aS'status'
p8985
aS'placement'
p8986
aS'situation'
p8987
aS'side'
p8988
aS'place'
p8989
aS'stead'
p8990
aS'put'
p8991
asS'Drinks'
p8992
(lp8993
S'drink'
p8994
aS'beverage'
p8995
aS'swallow'
p8996
aS'toast'
p8997
aS'drink_in'
p8998
asS'drawing'
p8999
(lp9000
S'lottery'
p9001
aS'draft'
p9002
aS'pull'
p9003
aS'reap'
p9004
aS'trace'
p9005
aS'draw'
p9006
aS'describe'
p9007
aS'puff'
p9008
aS'withdraw'
p9009
aS'absorb'
p9010
aS'attract'
p9011
aS'string'
p9012
aS'pull_back'
p9013
aS'guide'
p9014
aS'tie'
p9015
aS'disembowel'
p9016
asS'rocker'
p9017
(lp9018
S'rocking_chair'
p9019
asS'barking'
p9020
(lp9021
S'bark'
p9022
asS'half'
p9023
(lp9024
S'one-half'
p9025
asS'arriving'
p9026
(lp9027
S'arrive'
p9028
asS'distant'
p9029
(lp9030
S'aloof'
p9031
asS'fishing'
p9032
(lp9033
S'fish'
p9034
asS'drying'
p9035
(lp9036
S'dry'
p9037
asS'Eggs'
p9038
(lp9039
S'egg'
p9040
aS'testis'
p9041
asS'bell'
p9042
(lp9043
S'doorbell'
p9044
aS'chime'
p9045
asS'sky'
p9046
(lp9047
S'flip'
p9048
asS'bench'
p9049
(lp9050
S'terrace'
p9051
aS'judiciary'
p9052
aS'workbench'
p9053
asS'other'
p9054
(lp9055
S'early'
p9056
asS'circular'
p9057
(lp9058
S'round'
p9059
asS'combing'
p9060
(lp9061
S'comb'
p9062
asS'crack'
p9063
(lp9064
S'gap'
p9065
aS'crevice'
p9066
aS'shot'
p9067
aS'wisecrack'
p9068
aS'fracture'
p9069
aS'snap'
p9070
aS'break_through'
p9071
aS'crack_up'
p9072
aS'ace'
p9073
asS'footballer'
p9074
(lp9075
S'football_player'
p9076
asS'kick'
p9077
(lp9078
S'bang'
p9079
aS'recoil'
p9080
aS'gripe'
p9081
aS'kick_back'
p9082
aS'complain'
p9083
asS'branch'
p9084
(lp9085
S'outgrowth'
p9086
aS'arm'
p9087
aS'ramify'
p9088
asS'escorting'
p9089
(lp9090
S'escort'
p9091
aS'see'
p9092
asS'checking'
p9093
(lp9094
S'check'
p9095
aS'see'
p9096
aS'control'
p9097
aS'match'
p9098
aS'discipline'
p9099
aS'determine'
p9100
aS'crack'
p9101
asS'five'
p9102
(lp9103
S'basketball_team'
p9104
aS'five-spot'
p9105
asS'taking'
p9106
(lp9107
S'pickings'
p9108
aS'take'
p9109
aS'lead'
p9110
aS'assume'
p9111
aS'bring'
p9112
aS'choose'
p9113
aS'accept'
p9114
aS'fill'
p9115
aS'consider'
p9116
aS'necessitate'
p9117
aS'film'
p9118
aS'remove'
p9119
aS'consume'
p9120
aS'learn'
p9121
aS'claim'
p9122
aS'aim'
p9123
aS'carry'
p9124
aS'lease'
p9125
aS'subscribe'
p9126
aS'contain'
p9127
aS'drive'
p9128
aS'contract'
p9129
aS'fetching'
p9130
asS'untying'
p9131
(lp9132
S'untie'
p9133
asS'trash'
p9134
(lp9135
S'rubbish'
p9136
aS'folderol'
p9137
aS'methamphetamine'
p9138
aS'pan'
p9139
asS'showing'
p9140
(lp9141
S'screening'
p9142
aS'display'
p9143
aS'show'
p9144
aS'prove'
p9145
aS'testify'
p9146
aS'picture'
p9147
aS'express'
p9148
aS'indicate'
p9149
aS'read'
p9150
aS'usher'
p9151
asS'like'
p9152
(lp9153
S'wish'
p9154
aS'alike'
p9155
aS'comparable'
p9156
asS'chairs'
p9157
(lp9158
S'chair'
p9159
aS'professorship'
p9160
aS'president'
p9161
aS'electric_chair'
p9162
aS'moderate'
p9163
asS'soft'
p9164
(lp9165
S'delicate'
p9166
aS'voiced'
p9167
aS'piano'
p9168
aS'indulgent'
p9169
aS'gentle'
p9170
aS'easy'
p9171
aS'cushy'
p9172
aS'balmy'
p9173
asS'likes'
p9174
(lp9175
S'like'
p9176
aS'wish'
p9177
asS'crazily'
p9178
(lp9179
S'insanely'
p9180
asS'scared'
p9181
(lp9182
S'frighten'
p9183
aS'daunt'
p9184
aS'scar'
p9185
aS'frightened'
p9186
asS'village'
p9187
(lp9188
S'greenwich_village'
p9189
asS'swimsuits'
p9190
(lp9191
S'swimsuit'
p9192
asS'hair'
p9193
(lp9194
S"hair's-breadth"
p9195
aS'haircloth'
p9196
asS'twirling'
p9197
(lp9198
S'twirl'
p9199
aS'whirl'
p9200
asS'home'
p9201
(lp9202
S'dwelling'
p9203
aS'home_plate'
p9204
aS'base'
p9205
aS'family'
p9206
asS'prawns'
p9207
(lp9208
S'prawn'
p9209
asS'reloading'
p9210
(lp9211
S'recharge'
p9212
aS'reload'
p9213
asS'leaf'
p9214
(lp9215
S'flick'
p9216
asS'lead'
p9217
(lp9218
S'star'
p9219
aS'tip'
p9220
aS'spark_advance'
p9221
aS'leash'
p9222
aS'jumper_cable'
p9223
aS'leave'
p9224
aS'run'
p9225
aS'head'
p9226
aS'contribute'
p9227
aS'conduct'
p9228
aS'go'
p9229
aS'precede'
p9230
aS'moderate'
p9231
asS'dunes'
p9232
(lp9233
S'dune'
p9234
aS'torment'
p9235
aS'dun'
p9236
asS'kettle'
p9237
(lp9238
S'kettle_hole'
p9239
asS'grinding'
p9240
(lp9241
S'crunch'
p9242
aS'grate'
p9243
aS'labor'
p9244
aS'grind'
p9245
asS'leap'
p9246
(lp9247
S'jump'
p9248
asS'fountain'
p9249
(lp9250
S'spring'
p9251
asS'earrings'
p9252
(lp9253
S'earring'
p9254
asS'glacial'
p9255
(lp9256
S'frigid'
p9257
aS'arctic'
p9258
asS'blurry'
p9259
(lp9260
S'bleary'
p9261
asS'pepper'
p9262
(lp9263
S'capsicum'
p9264
asS'blowing'
p9265
(lp9266
S'blow'
p9267
aS'float'
p9268
aS'botch'
p9269
aS'waste'
p9270
aS'fellate'
p9271
aS'shove_off'
p9272
aS'boast'
p9273
aS'blow_out'
p9274
asS'reaching'
p9275
(lp9276
S'reach'
p9277
aS'arrival'
p9278
aS'achieve'
p9279
aS'pass'
p9280
aS'strive'
p9281
asS'dangling'
p9282
(lp9283
S'suspension'
p9284
aS'dangle'
p9285
asS'mitt'
p9286
(lp9287
S'hand'
p9288
aS'baseball_glove'
p9289
asS'bowling'
p9290
(lp9291
S'bowl'
p9292
asS'oiled'
p9293
(lp9294
S'oil'
p9295
aS'anoint'
p9296
asS'sledge'
p9297
(lp9298
S'sled'
p9299
aS'maul'
p9300
aS'sledgehammer'
p9301
asS'stage'
p9302
(lp9303
S'phase'
p9304
aS'degree'
p9305
aS'stagecoach'
p9306
asS'about'
p9307
(lp9308
S'approximately'
p9309
asS'carried'
p9310
(lp9311
S'transport'
p9312
aS'carry'
p9313
aS'impart'
p9314
aS'hold'
p9315
aS'behave'
p9316
aS'stock'
p9317
aS'dribble'
p9318
aS'post'
p9319
aS'have_a_bun_in_the_oven'
p9320
asS'saddle'
p9321
(lp9322
S'saddleback'
p9323
aS'bicycle_seat'
p9324
aS'charge'
p9325
asS'camels'
p9326
(lp9327
S'camel'
p9328
asS'puppies'
p9329
(lp9330
S'puppy'
p9331
asS'tongue'
p9332
(lp9333
S'natural_language'
p9334
aS'spit'
p9335
aS'clapper'
p9336
asS'swimming'
p9337
(lp9338
S'swim'
p9339
aS'float'
p9340
aS'liquid'
p9341
aS'naiant'
p9342
asS'backbends'
p9343
(lp9344
S'backbend'
p9345
asS'polished'
p9346
(lp9347
S'polish'
p9348
aS'milled'
p9349
aS'dressed'
p9350
asS'gymnastic'
p9351
(lp9352
S'acrobatic'
p9353
asS'Two'
p9354
(lp9355
S'two'
p9356
aS'deuce'
p9357
asS'mushrooms'
p9358
(lp9359
S'mushroom'
p9360
asS'weather'
p9361
(lp9362
S'upwind'
p9363
asS'swimmers'
p9364
(lp9365
S'swimmer'
p9366
asS'upside-down'
p9367
(lp9368
S'inverted'
p9369
asS'Recruits'
p9370
(lp9371
S'recruit'
p9372
aS'enroll'
p9373
asS'veil'
p9374
(lp9375
S'head_covering'
p9376
aS'caul'
p9377
aS'humeral_veil'
p9378
aS'obscure'
p9379
asS'vegetables'
p9380
(lp9381
S'vegetable'
p9382
asS'spots'
p9383
(lp9384
S'musca_volitans'
p9385
aS'topographic_point'
p9386
aS'spot'
p9387
aS'point'
p9388
aS'smudge'
p9389
aS'position'
p9390
aS'touch'
p9391
aS'spotlight'
p9392
aS'blot'
p9393
aS'descry'
p9394
aS'blemish'
p9395
asS'rinsing'
p9396
(lp9397
S'rinse'
p9398
aS'wash'
p9399
aS'gargle'
p9400
asS'upwards'
p9401
(lp9402
S'up'
p9403
asS'chatting'
p9404
(lp9405
S'chew_the_fat'
p9406
asS'Tambourines'
p9407
(lp9408
S'tambourine'
p9409
asS'bus'
p9410
(lp9411
S'bus_topology'
p9412
aS'busbar'
p9413
asS'fountains'
p9414
(lp9415
S'fountain'
p9416
aS'spring'
p9417
asS'construction'
p9418
(lp9419
S'structure'
p9420
asS'sprinkling'
p9421
(lp9422
S'scattering'
p9423
aS'aspersion'
p9424
aS'sprinkle'
p9425
aS'scatter'
p9426
asS'teaming'
p9427
(lp9428
S'team'
p9429
asS'ear'
p9430
(lp9431
S'auricle'
p9432
asS'eat'
p9433
(lp9434
S'feed'
p9435
aS'consume'
p9436
aS'corrode'
p9437
asS'made'
p9438
(lp9439
S'make'
p9440
aS'induce'
p9441
aS'cause'
p9442
aS'produce'
p9443
aS'draw'
p9444
aS'create'
p9445
aS'gain'
p9446
aS'do'
p9447
aS'form'
p9448
aS'reach'
p9449
aS'construct'
p9450
aS'name'
p9451
aS'have'
p9452
aS'lay_down'
p9453
aS'hold'
p9454
aS'take'
p9455
aS'stool'
p9456
aS'cook'
p9457
aS'seduce'
p9458
asS'tossed'
p9459
(lp9460
S'flip'
p9461
aS'chuck'
p9462
aS'convulse'
p9463
aS'discard'
p9464
aS'toss'
p9465
asS'flip'
p9466
(lp9467
S'somersault'
p9468
aS'pass'
p9469
aS'throw'
p9470
aS'flick'
p9471
aS'interchange'
p9472
aS'impudent'
p9473
asS'excitement'
p9474
(lp9475
S'exhilaration'
p9476
aS'excitation'
p9477
aS'agitation'
p9478
asS'placed'
p9479
(lp9480
S'put'
p9481
aS'place'
p9482
aS'rate'
p9483
aS'locate'
p9484
aS'target'
p9485
aS'identify'
p9486
aS'set'
p9487
aS'invest'
p9488
aS'station'
p9489
aS'located'
p9490
asS'below'
p9491
(lp9492
S'downstairs'
p9493
aS'under'
p9494
asS'monument'
p9495
(lp9496
S'memorial'
p9497
aS'repository'
p9498
asS'piece'
p9499
(lp9500
S'part'
p9501
aS'musical_composition'
p9502
aS'firearm'
p9503
aS"objet_d'art"
p9504
aS'while'
p9505
aS'slice'
p9506
aS'man'
p9507
aS'patch'
p9508
aS'assemble'
p9509
aS'nibble'
p9510
asS'stirring'
p9511
(lp9512
S'inspiration'
p9513
aS'stir'
p9514
aS'stimulate'
p9515
aS'touch'
p9516
aS'raise'
p9517
aS'arouse'
p9518
aS'rousing'
p9519
asS'skating'
p9520
(lp9521
S'skate'
p9522
asS'unfolding'
p9523
(lp9524
S'blossom'
p9525
aS'unfold'
p9526
asS'topless'
p9527
(lp9528
S'bare-breasted'
p9529
asS'slowing'
p9530
(lp9531
S'deceleration'
p9532
aS'decelerate'
p9533
aS'slow'
p9534
asS'pig'
p9535
(lp9536
S'hog'
p9537
aS'slob'
p9538
aS'bull'
p9539
aS'pig_bed'
p9540
aS'devour'
p9541
aS'farrow'
p9542
asS'shooting'
p9543
(lp9544
S'shoot'
p9545
aS'blast'
p9546
aS'film'
p9547
aS'dart'
p9548
aS'tear'
p9549
aS'photograph'
p9550
aS'inject'
p9551
aS'fritter'
p9552
asS'planting'
p9553
(lp9554
S'plant'
p9555
aS'implant'
p9556
aS'establish'
p9557
asS'loud'
p9558
(lp9559
S'brassy'
p9560
aS'forte'
p9561
aS'loudly'
p9562
asS'ingredients'
p9563
(lp9564
S'ingredient'
p9565
aS'component'
p9566
asS'fencing'
p9567
(lp9568
S'fence'
p9569
aS'fencing_material'
p9570
aS'wall'
p9571
aS'argue'
p9572
asS'boot'
p9573
(lp9574
S'bang'
p9575
aS'kick'
p9576
asS'book'
p9577
(lp9578
S'record'
p9579
aS'script'
p9580
aS'ledger'
p9581
aS'koran'
p9582
aS'bible'
p9583
aS'reserve'
p9584
asS'Five'
p9585
(lp9586
S'five'
p9587
aS'basketball_team'
p9588
aS'five-spot'
p9589
asS'breaded'
p9590
(lp9591
S'bread'
p9592
asS'dresses'
p9593
(lp9594
S'dress'
p9595
aS'attire'
p9596
aS'apparel'
p9597
aS'preen'
p9598
aS'trim'
p9599
aS'snip'
p9600
asS'waves'
p9601
(lp9602
S'wave'
p9603
aS'beckon'
p9604
aS'brandish'
p9605
aS'roll'
p9606
aS'curl'
p9607
asS'shredded'
p9608
(lp9609
S'shred'
p9610
aS'chopped'
p9611
asS'squeezing'
p9612
(lp9613
S'squeeze'
p9614
aS'squash'
p9615
aS'wedge'
p9616
aS'coerce'
p9617
aS'extort'
p9618
aS'thrust'
p9619
aS'pinch'
p9620
aS'embrace'
p9621
aS'compress'
p9622
asS'friends'
p9623
(lp9624
S'friend'
p9625
aS'ally'
p9626
aS'acquaintance'
p9627
aS'supporter'
p9628
asS'stirred'
p9629
(lp9630
S'stir'
p9631
aS'stimulate'
p9632
aS'touch'
p9633
aS'raise'
p9634
aS'arouse'
p9635
aS'moved'
p9636
aS'stimulated'
p9637
asS'tanking'
p9638
(lp9639
S'tank'
p9640
as.